

Microchip MPLAB XC8 Assembler V2.35 build 20211206165544 
                                                                                               Wed Jan 26 23:50:22 2022

Microchip MPLAB XC8 C Compiler v2.35 (Free license) build 20211206165544 Og1 
     1                           	processor	16F18345
     2                           	pagewidth 120
     3                           	opt	flic
     4                           	psect	stringtext1,global,class=STRCODE,delta=2,noexec
     5                           	psect	stringtext2,global,class=STRCODE,delta=2,noexec
     6                           	psect	stringtext3,global,class=STRCODE,delta=2,noexec
     7                           	psect	cinit,global,class=CODE,merge=1,delta=2
     8                           	psect	bssCOMMON,global,class=COMMON,space=1,delta=1,noexec
     9                           	psect	bssBANK0,global,class=BANK0,space=1,delta=1,noexec
    10                           	psect	cstackCOMMON,global,class=COMMON,space=1,delta=1,noexec
    11                           	psect	cstackBANK0,global,class=BANK0,space=1,delta=1,noexec
    12                           	psect	maintext,global,class=CODE,merge=1,split=1,delta=2
    13                           	psect	text1,local,class=CODE,merge=1,delta=2
    14                           	psect	text2,local,class=CODE,merge=1,delta=2
    15                           	psect	text3,local,class=CODE,merge=1,delta=2
    16                           	psect	text4,local,class=CODE,merge=1,delta=2
    17                           	psect	text5,local,class=CODE,merge=1,delta=2
    18                           	psect	text6,local,class=CODE,merge=1,delta=2
    19                           	psect	text7,local,class=CODE,merge=1,delta=2
    20                           	psect	text8,local,class=CODE,merge=1,delta=2
    21                           	psect	text9,local,class=CODE,merge=1,delta=2
    22                           	psect	intentry,global,class=CODE,delta=2
    23                           	psect	text11,local,class=CODE,merge=1,delta=2
    24                           	psect	text12,local,class=CODE,merge=1,delta=2
    25                           	psect	text13,local,class=CODE,merge=1,delta=2
    26                           	psect	text14,local,class=CODE,merge=1,delta=2
    27                           	psect	text15,local,class=CODE,merge=1,delta=2
    28                           	psect	idloc,global,abs,ovrld,class=IDLOC,space=5,delta=2,noexec
    29                           	psect	config,global,abs,ovrld,class=CONFIG,space=4,delta=2,noexec
    30                           	dabs	1,0x7E,2
    31  0000                     
    32                           ; Version 2.40
    33                           ; Generated 19/01/2022 GMT
    34                           ; 
    35                           ; Copyright © 2022, Microchip Technology Inc. and its subsidiaries ("Microchip")
    36                           ; All rights reserved.
    37                           ; 
    38                           ; This software is developed by Microchip Technology Inc. and its subsidiaries ("Microch
      +                          ip").
    39                           ; 
    40                           ; Redistribution and use in source and binary forms, with or without modification, are
    41                           ; permitted provided that the following conditions are met:
    42                           ; 
    43                           ;     1. Redistributions of source code must retain the above copyright notice, this lis
      +                          t of
    44                           ;        conditions and the following disclaimer.
    45                           ; 
    46                           ;     2. Redistributions in binary form must reproduce the above copyright notice, this 
      +                          list
    47                           ;        of conditions and the following disclaimer in the documentation and/or other
    48                           ;        materials provided with the distribution. Publication is not required when
    49                           ;        this file is used in an embedded application.
    50                           ; 
    51                           ;     3. Microchip's name may not be used to endorse or promote products derived from th
      +                          is
    52                           ;        software without specific prior written permission.
    53                           ; 
    54                           ; THIS SOFTWARE IS PROVIDED BY MICROCHIP "AS IS" AND ANY EXPRESS OR IMPLIED WARRANTIES,
    55                           ; INCLUDING, BUT NOT LIMITED TO, THE IMPLIED WARRANTIES OF MERCHANTABILITY AND FITNESS F
      +                          OR
    56                           ; PURPOSE ARE DISCLAIMED.  IN NO EVENT SHALL MICROCHIP BE LIABLE FOR ANY DIRECT, INDIREC
      +                          T,
    57                           ; INCIDENTAL, SPECIAL, EXEMPLARY, OR CONSEQUENTIAL DAMAGES (INCLUDING BUT NOT LIMITED TO
    58                           ; PROCUREMENT OF SUBSTITUTE GOODS OR SERVICES; LOSS OF USE, DATA OR PROFITS; OR BUSINESS
    59                           ; INTERRUPTION) HOWSOEVER CAUSED AND ON ANY THEORY OF LIABILITY, WHETHER IN CONTRACT, ST
      +                          RICT
    60                           ; LIABILITY, OR TORT (INCLUDING NEGLIGENCE OR OTHERWISE) ARISING IN ANY WAY OUT OF THE U
      +                          SE OF
    61                           ; THIS SOFTWARE, EVEN IF ADVISED OF THE POSSIBILITY OF SUCH DAMAGE.
    62                           ; 
    63                           ; 
    64                           ; Code-generator required, PIC16F18345 Definitions
    65                           ; 
    66                           ; SFR Addresses
    67  0000                     	;# 
    68  0001                     	;# 
    69  0002                     	;# 
    70  0003                     	;# 
    71  0004                     	;# 
    72  0005                     	;# 
    73  0006                     	;# 
    74  0007                     	;# 
    75  0008                     	;# 
    76  0009                     	;# 
    77  000A                     	;# 
    78  000B                     	;# 
    79  000C                     	;# 
    80  000D                     	;# 
    81  000E                     	;# 
    82  0010                     	;# 
    83  0011                     	;# 
    84  0012                     	;# 
    85  0013                     	;# 
    86  0014                     	;# 
    87  0015                     	;# 
    88  0015                     	;# 
    89  0016                     	;# 
    90  0016                     	;# 
    91  0017                     	;# 
    92  0018                     	;# 
    93  0019                     	;# 
    94  0019                     	;# 
    95  001A                     	;# 
    96  001B                     	;# 
    97  001C                     	;# 
    98  001D                     	;# 
    99  001E                     	;# 
   100  001F                     	;# 
   101  008C                     	;# 
   102  008D                     	;# 
   103  008E                     	;# 
   104  0090                     	;# 
   105  0091                     	;# 
   106  0092                     	;# 
   107  0093                     	;# 
   108  0094                     	;# 
   109  0097                     	;# 
   110  009B                     	;# 
   111  009B                     	;# 
   112  009C                     	;# 
   113  009D                     	;# 
   114  009E                     	;# 
   115  009F                     	;# 
   116  010C                     	;# 
   117  010D                     	;# 
   118  010E                     	;# 
   119  0111                     	;# 
   120  0112                     	;# 
   121  0113                     	;# 
   122  0114                     	;# 
   123  0115                     	;# 
   124  0116                     	;# 
   125  0117                     	;# 
   126  0118                     	;# 
   127  0119                     	;# 
   128  018C                     	;# 
   129  018D                     	;# 
   130  018E                     	;# 
   131  0197                     	;# 
   132  0199                     	;# 
   133  0199                     	;# 
   134  0199                     	;# 
   135  019A                     	;# 
   136  019A                     	;# 
   137  019A                     	;# 
   138  019B                     	;# 
   139  019B                     	;# 
   140  019B                     	;# 
   141  019B                     	;# 
   142  019B                     	;# 
   143  019C                     	;# 
   144  019C                     	;# 
   145  019C                     	;# 
   146  019D                     	;# 
   147  019D                     	;# 
   148  019D                     	;# 
   149  019E                     	;# 
   150  019E                     	;# 
   151  019E                     	;# 
   152  019F                     	;# 
   153  019F                     	;# 
   154  019F                     	;# 
   155  019F                     	;# 
   156  019F                     	;# 
   157  020C                     	;# 
   158  020D                     	;# 
   159  020E                     	;# 
   160  0211                     	;# 
   161  0211                     	;# 
   162  0212                     	;# 
   163  0212                     	;# 
   164  0213                     	;# 
   165  0213                     	;# 
   166  0214                     	;# 
   167  0214                     	;# 
   168  0215                     	;# 
   169  0215                     	;# 
   170  0215                     	;# 
   171  0215                     	;# 
   172  0216                     	;# 
   173  0216                     	;# 
   174  0217                     	;# 
   175  0217                     	;# 
   176  0219                     	;# 
   177  021A                     	;# 
   178  021B                     	;# 
   179  021C                     	;# 
   180  021D                     	;# 
   181  021D                     	;# 
   182  021E                     	;# 
   183  021F                     	;# 
   184  028C                     	;# 
   185  028D                     	;# 
   186  028E                     	;# 
   187  0291                     	;# 
   188  0291                     	;# 
   189  0292                     	;# 
   190  0293                     	;# 
   191  0294                     	;# 
   192  0295                     	;# 
   193  0295                     	;# 
   194  0296                     	;# 
   195  0297                     	;# 
   196  0298                     	;# 
   197  029F                     	;# 
   198  030C                     	;# 
   199  030D                     	;# 
   200  030E                     	;# 
   201  0311                     	;# 
   202  0311                     	;# 
   203  0312                     	;# 
   204  0313                     	;# 
   205  0314                     	;# 
   206  0315                     	;# 
   207  0315                     	;# 
   208  0316                     	;# 
   209  0317                     	;# 
   210  0318                     	;# 
   211  038C                     	;# 
   212  038D                     	;# 
   213  038E                     	;# 
   214  0391                     	;# 
   215  0392                     	;# 
   216  0393                     	;# 
   217  0394                     	;# 
   218  0395                     	;# 
   219  0396                     	;# 
   220  0397                     	;# 
   221  0398                     	;# 
   222  0399                     	;# 
   223  039A                     	;# 
   224  039C                     	;# 
   225  039D                     	;# 
   226  039E                     	;# 
   227  039F                     	;# 
   228  0411                     	;# 
   229  0411                     	;# 
   230  0412                     	;# 
   231  0413                     	;# 
   232  0414                     	;# 
   233  0415                     	;# 
   234  0416                     	;# 
   235  0417                     	;# 
   236  0418                     	;# 
   237  0418                     	;# 
   238  0419                     	;# 
   239  041A                     	;# 
   240  041B                     	;# 
   241  041C                     	;# 
   242  041D                     	;# 
   243  041E                     	;# 
   244  041F                     	;# 
   245  0498                     	;# 
   246  0498                     	;# 
   247  0499                     	;# 
   248  049A                     	;# 
   249  049B                     	;# 
   250  049B                     	;# 
   251  049C                     	;# 
   252  049D                     	;# 
   253  049E                     	;# 
   254  049F                     	;# 
   255  0617                     	;# 
   256  0618                     	;# 
   257  0619                     	;# 
   258  0619                     	;# 
   259  061A                     	;# 
   260  061B                     	;# 
   261  061C                     	;# 
   262  061C                     	;# 
   263  061F                     	;# 
   264  0691                     	;# 
   265  0692                     	;# 
   266  0693                     	;# 
   267  0694                     	;# 
   268  0695                     	;# 
   269  0696                     	;# 
   270  0697                     	;# 
   271  0698                     	;# 
   272  0699                     	;# 
   273  0711                     	;# 
   274  0712                     	;# 
   275  0713                     	;# 
   276  0714                     	;# 
   277  0715                     	;# 
   278  0716                     	;# 
   279  0717                     	;# 
   280  0718                     	;# 
   281  0719                     	;# 
   282  0891                     	;# 
   283  0891                     	;# 
   284  0891                     	;# 
   285  0891                     	;# 
   286  0891                     	;# 
   287  0891                     	;# 
   288  0892                     	;# 
   289  0892                     	;# 
   290  0892                     	;# 
   291  0893                     	;# 
   292  0893                     	;# 
   293  0893                     	;# 
   294  0893                     	;# 
   295  0893                     	;# 
   296  0893                     	;# 
   297  0894                     	;# 
   298  0894                     	;# 
   299  0894                     	;# 
   300  0895                     	;# 
   301  0895                     	;# 
   302  0895                     	;# 
   303  0896                     	;# 
   304  0896                     	;# 
   305  0896                     	;# 
   306  089B                     	;# 
   307  0911                     	;# 
   308  0912                     	;# 
   309  0913                     	;# 
   310  0914                     	;# 
   311  0915                     	;# 
   312  0916                     	;# 
   313  0918                     	;# 
   314  0919                     	;# 
   315  091A                     	;# 
   316  091B                     	;# 
   317  091C                     	;# 
   318  091D                     	;# 
   319  091E                     	;# 
   320  091F                     	;# 
   321  0E0F                     	;# 
   322  0E10                     	;# 
   323  0E11                     	;# 
   324  0E12                     	;# 
   325  0E13                     	;# 
   326  0E14                     	;# 
   327  0E15                     	;# 
   328  0E16                     	;# 
   329  0E17                     	;# 
   330  0E18                     	;# 
   331  0E19                     	;# 
   332  0E1A                     	;# 
   333  0E1B                     	;# 
   334  0E1C                     	;# 
   335  0E1D                     	;# 
   336  0E1E                     	;# 
   337  0E1F                     	;# 
   338  0E20                     	;# 
   339  0E21                     	;# 
   340  0E22                     	;# 
   341  0E24                     	;# 
   342  0E25                     	;# 
   343  0E28                     	;# 
   344  0E29                     	;# 
   345  0E2A                     	;# 
   346  0E2B                     	;# 
   347  0E2C                     	;# 
   348  0E2D                     	;# 
   349  0E2E                     	;# 
   350  0E2F                     	;# 
   351  0E90                     	;# 
   352  0E91                     	;# 
   353  0E92                     	;# 
   354  0E94                     	;# 
   355  0E95                     	;# 
   356  0E9C                     	;# 
   357  0E9D                     	;# 
   358  0E9E                     	;# 
   359  0E9F                     	;# 
   360  0EA0                     	;# 
   361  0EA1                     	;# 
   362  0EA2                     	;# 
   363  0EA3                     	;# 
   364  0EA4                     	;# 
   365  0EA5                     	;# 
   366  0EA6                     	;# 
   367  0EA7                     	;# 
   368  0F0F                     	;# 
   369  0F10                     	;# 
   370  0F11                     	;# 
   371  0F12                     	;# 
   372  0F13                     	;# 
   373  0F14                     	;# 
   374  0F15                     	;# 
   375  0F16                     	;# 
   376  0F17                     	;# 
   377  0F18                     	;# 
   378  0F19                     	;# 
   379  0F1A                     	;# 
   380  0F1B                     	;# 
   381  0F1C                     	;# 
   382  0F1D                     	;# 
   383  0F1E                     	;# 
   384  0F1F                     	;# 
   385  0F20                     	;# 
   386  0F21                     	;# 
   387  0F22                     	;# 
   388  0F23                     	;# 
   389  0F24                     	;# 
   390  0F25                     	;# 
   391  0F26                     	;# 
   392  0F27                     	;# 
   393  0F28                     	;# 
   394  0F29                     	;# 
   395  0F2A                     	;# 
   396  0F2B                     	;# 
   397  0F2C                     	;# 
   398  0F2D                     	;# 
   399  0F2E                     	;# 
   400  0F2F                     	;# 
   401  0F30                     	;# 
   402  0F31                     	;# 
   403  0F32                     	;# 
   404  0F33                     	;# 
   405  0F34                     	;# 
   406  0F35                     	;# 
   407  0F36                     	;# 
   408  0F37                     	;# 
   409  0FE4                     	;# 
   410  0FE5                     	;# 
   411  0FE6                     	;# 
   412  0FE7                     	;# 
   413  0FE8                     	;# 
   414  0FE9                     	;# 
   415  0FEA                     	;# 
   416  0FEB                     	;# 
   417  0FED                     	;# 
   418  0FEE                     	;# 
   419  0FEF                     	;# 
   420  0000                     	;# 
   421  0001                     	;# 
   422  0002                     	;# 
   423  0003                     	;# 
   424  0004                     	;# 
   425  0005                     	;# 
   426  0006                     	;# 
   427  0007                     	;# 
   428  0008                     	;# 
   429  0009                     	;# 
   430  000A                     	;# 
   431  000B                     	;# 
   432  000C                     	;# 
   433  000D                     	;# 
   434  000E                     	;# 
   435  0010                     	;# 
   436  0011                     	;# 
   437  0012                     	;# 
   438  0013                     	;# 
   439  0014                     	;# 
   440  0015                     	;# 
   441  0015                     	;# 
   442  0016                     	;# 
   443  0016                     	;# 
   444  0017                     	;# 
   445  0018                     	;# 
   446  0019                     	;# 
   447  0019                     	;# 
   448  001A                     	;# 
   449  001B                     	;# 
   450  001C                     	;# 
   451  001D                     	;# 
   452  001E                     	;# 
   453  001F                     	;# 
   454  008C                     	;# 
   455  008D                     	;# 
   456  008E                     	;# 
   457  0090                     	;# 
   458  0091                     	;# 
   459  0092                     	;# 
   460  0093                     	;# 
   461  0094                     	;# 
   462  0097                     	;# 
   463  009B                     	;# 
   464  009B                     	;# 
   465  009C                     	;# 
   466  009D                     	;# 
   467  009E                     	;# 
   468  009F                     	;# 
   469  010C                     	;# 
   470  010D                     	;# 
   471  010E                     	;# 
   472  0111                     	;# 
   473  0112                     	;# 
   474  0113                     	;# 
   475  0114                     	;# 
   476  0115                     	;# 
   477  0116                     	;# 
   478  0117                     	;# 
   479  0118                     	;# 
   480  0119                     	;# 
   481  018C                     	;# 
   482  018D                     	;# 
   483  018E                     	;# 
   484  0197                     	;# 
   485  0199                     	;# 
   486  0199                     	;# 
   487  0199                     	;# 
   488  019A                     	;# 
   489  019A                     	;# 
   490  019A                     	;# 
   491  019B                     	;# 
   492  019B                     	;# 
   493  019B                     	;# 
   494  019B                     	;# 
   495  019B                     	;# 
   496  019C                     	;# 
   497  019C                     	;# 
   498  019C                     	;# 
   499  019D                     	;# 
   500  019D                     	;# 
   501  019D                     	;# 
   502  019E                     	;# 
   503  019E                     	;# 
   504  019E                     	;# 
   505  019F                     	;# 
   506  019F                     	;# 
   507  019F                     	;# 
   508  019F                     	;# 
   509  019F                     	;# 
   510  020C                     	;# 
   511  020D                     	;# 
   512  020E                     	;# 
   513  0211                     	;# 
   514  0211                     	;# 
   515  0212                     	;# 
   516  0212                     	;# 
   517  0213                     	;# 
   518  0213                     	;# 
   519  0214                     	;# 
   520  0214                     	;# 
   521  0215                     	;# 
   522  0215                     	;# 
   523  0215                     	;# 
   524  0215                     	;# 
   525  0216                     	;# 
   526  0216                     	;# 
   527  0217                     	;# 
   528  0217                     	;# 
   529  0219                     	;# 
   530  021A                     	;# 
   531  021B                     	;# 
   532  021C                     	;# 
   533  021D                     	;# 
   534  021D                     	;# 
   535  021E                     	;# 
   536  021F                     	;# 
   537  028C                     	;# 
   538  028D                     	;# 
   539  028E                     	;# 
   540  0291                     	;# 
   541  0291                     	;# 
   542  0292                     	;# 
   543  0293                     	;# 
   544  0294                     	;# 
   545  0295                     	;# 
   546  0295                     	;# 
   547  0296                     	;# 
   548  0297                     	;# 
   549  0298                     	;# 
   550  029F                     	;# 
   551  030C                     	;# 
   552  030D                     	;# 
   553  030E                     	;# 
   554  0311                     	;# 
   555  0311                     	;# 
   556  0312                     	;# 
   557  0313                     	;# 
   558  0314                     	;# 
   559  0315                     	;# 
   560  0315                     	;# 
   561  0316                     	;# 
   562  0317                     	;# 
   563  0318                     	;# 
   564  038C                     	;# 
   565  038D                     	;# 
   566  038E                     	;# 
   567  0391                     	;# 
   568  0392                     	;# 
   569  0393                     	;# 
   570  0394                     	;# 
   571  0395                     	;# 
   572  0396                     	;# 
   573  0397                     	;# 
   574  0398                     	;# 
   575  0399                     	;# 
   576  039A                     	;# 
   577  039C                     	;# 
   578  039D                     	;# 
   579  039E                     	;# 
   580  039F                     	;# 
   581  0411                     	;# 
   582  0411                     	;# 
   583  0412                     	;# 
   584  0413                     	;# 
   585  0414                     	;# 
   586  0415                     	;# 
   587  0416                     	;# 
   588  0417                     	;# 
   589  0418                     	;# 
   590  0418                     	;# 
   591  0419                     	;# 
   592  041A                     	;# 
   593  041B                     	;# 
   594  041C                     	;# 
   595  041D                     	;# 
   596  041E                     	;# 
   597  041F                     	;# 
   598  0498                     	;# 
   599  0498                     	;# 
   600  0499                     	;# 
   601  049A                     	;# 
   602  049B                     	;# 
   603  049B                     	;# 
   604  049C                     	;# 
   605  049D                     	;# 
   606  049E                     	;# 
   607  049F                     	;# 
   608  0617                     	;# 
   609  0618                     	;# 
   610  0619                     	;# 
   611  0619                     	;# 
   612  061A                     	;# 
   613  061B                     	;# 
   614  061C                     	;# 
   615  061C                     	;# 
   616  061F                     	;# 
   617  0691                     	;# 
   618  0692                     	;# 
   619  0693                     	;# 
   620  0694                     	;# 
   621  0695                     	;# 
   622  0696                     	;# 
   623  0697                     	;# 
   624  0698                     	;# 
   625  0699                     	;# 
   626  0711                     	;# 
   627  0712                     	;# 
   628  0713                     	;# 
   629  0714                     	;# 
   630  0715                     	;# 
   631  0716                     	;# 
   632  0717                     	;# 
   633  0718                     	;# 
   634  0719                     	;# 
   635  0891                     	;# 
   636  0891                     	;# 
   637  0891                     	;# 
   638  0891                     	;# 
   639  0891                     	;# 
   640  0891                     	;# 
   641  0892                     	;# 
   642  0892                     	;# 
   643  0892                     	;# 
   644  0893                     	;# 
   645  0893                     	;# 
   646  0893                     	;# 
   647  0893                     	;# 
   648  0893                     	;# 
   649  0893                     	;# 
   650  0894                     	;# 
   651  0894                     	;# 
   652  0894                     	;# 
   653  0895                     	;# 
   654  0895                     	;# 
   655  0895                     	;# 
   656  0896                     	;# 
   657  0896                     	;# 
   658  0896                     	;# 
   659  089B                     	;# 
   660  0911                     	;# 
   661  0912                     	;# 
   662  0913                     	;# 
   663  0914                     	;# 
   664  0915                     	;# 
   665  0916                     	;# 
   666  0918                     	;# 
   667  0919                     	;# 
   668  091A                     	;# 
   669  091B                     	;# 
   670  091C                     	;# 
   671  091D                     	;# 
   672  091E                     	;# 
   673  091F                     	;# 
   674  0E0F                     	;# 
   675  0E10                     	;# 
   676  0E11                     	;# 
   677  0E12                     	;# 
   678  0E13                     	;# 
   679  0E14                     	;# 
   680  0E15                     	;# 
   681  0E16                     	;# 
   682  0E17                     	;# 
   683  0E18                     	;# 
   684  0E19                     	;# 
   685  0E1A                     	;# 
   686  0E1B                     	;# 
   687  0E1C                     	;# 
   688  0E1D                     	;# 
   689  0E1E                     	;# 
   690  0E1F                     	;# 
   691  0E20                     	;# 
   692  0E21                     	;# 
   693  0E22                     	;# 
   694  0E24                     	;# 
   695  0E25                     	;# 
   696  0E28                     	;# 
   697  0E29                     	;# 
   698  0E2A                     	;# 
   699  0E2B                     	;# 
   700  0E2C                     	;# 
   701  0E2D                     	;# 
   702  0E2E                     	;# 
   703  0E2F                     	;# 
   704  0E90                     	;# 
   705  0E91                     	;# 
   706  0E92                     	;# 
   707  0E94                     	;# 
   708  0E95                     	;# 
   709  0E9C                     	;# 
   710  0E9D                     	;# 
   711  0E9E                     	;# 
   712  0E9F                     	;# 
   713  0EA0                     	;# 
   714  0EA1                     	;# 
   715  0EA2                     	;# 
   716  0EA3                     	;# 
   717  0EA4                     	;# 
   718  0EA5                     	;# 
   719  0EA6                     	;# 
   720  0EA7                     	;# 
   721  0F0F                     	;# 
   722  0F10                     	;# 
   723  0F11                     	;# 
   724  0F12                     	;# 
   725  0F13                     	;# 
   726  0F14                     	;# 
   727  0F15                     	;# 
   728  0F16                     	;# 
   729  0F17                     	;# 
   730  0F18                     	;# 
   731  0F19                     	;# 
   732  0F1A                     	;# 
   733  0F1B                     	;# 
   734  0F1C                     	;# 
   735  0F1D                     	;# 
   736  0F1E                     	;# 
   737  0F1F                     	;# 
   738  0F20                     	;# 
   739  0F21                     	;# 
   740  0F22                     	;# 
   741  0F23                     	;# 
   742  0F24                     	;# 
   743  0F25                     	;# 
   744  0F26                     	;# 
   745  0F27                     	;# 
   746  0F28                     	;# 
   747  0F29                     	;# 
   748  0F2A                     	;# 
   749  0F2B                     	;# 
   750  0F2C                     	;# 
   751  0F2D                     	;# 
   752  0F2E                     	;# 
   753  0F2F                     	;# 
   754  0F30                     	;# 
   755  0F31                     	;# 
   756  0F32                     	;# 
   757  0F33                     	;# 
   758  0F34                     	;# 
   759  0F35                     	;# 
   760  0F36                     	;# 
   761  0F37                     	;# 
   762  0FE4                     	;# 
   763  0FE5                     	;# 
   764  0FE6                     	;# 
   765  0FE7                     	;# 
   766  0FE8                     	;# 
   767  0FE9                     	;# 
   768  0FEA                     	;# 
   769  0FEB                     	;# 
   770  0FED                     	;# 
   771  0FEE                     	;# 
   772  0FEF                     	;# 
   773  0000                     	;# 
   774  0001                     	;# 
   775  0002                     	;# 
   776  0003                     	;# 
   777  0004                     	;# 
   778  0005                     	;# 
   779  0006                     	;# 
   780  0007                     	;# 
   781  0008                     	;# 
   782  0009                     	;# 
   783  000A                     	;# 
   784  000B                     	;# 
   785  000C                     	;# 
   786  000D                     	;# 
   787  000E                     	;# 
   788  0010                     	;# 
   789  0011                     	;# 
   790  0012                     	;# 
   791  0013                     	;# 
   792  0014                     	;# 
   793  0015                     	;# 
   794  0015                     	;# 
   795  0016                     	;# 
   796  0016                     	;# 
   797  0017                     	;# 
   798  0018                     	;# 
   799  0019                     	;# 
   800  0019                     	;# 
   801  001A                     	;# 
   802  001B                     	;# 
   803  001C                     	;# 
   804  001D                     	;# 
   805  001E                     	;# 
   806  001F                     	;# 
   807  008C                     	;# 
   808  008D                     	;# 
   809  008E                     	;# 
   810  0090                     	;# 
   811  0091                     	;# 
   812  0092                     	;# 
   813  0093                     	;# 
   814  0094                     	;# 
   815  0097                     	;# 
   816  009B                     	;# 
   817  009B                     	;# 
   818  009C                     	;# 
   819  009D                     	;# 
   820  009E                     	;# 
   821  009F                     	;# 
   822  010C                     	;# 
   823  010D                     	;# 
   824  010E                     	;# 
   825  0111                     	;# 
   826  0112                     	;# 
   827  0113                     	;# 
   828  0114                     	;# 
   829  0115                     	;# 
   830  0116                     	;# 
   831  0117                     	;# 
   832  0118                     	;# 
   833  0119                     	;# 
   834  018C                     	;# 
   835  018D                     	;# 
   836  018E                     	;# 
   837  0197                     	;# 
   838  0199                     	;# 
   839  0199                     	;# 
   840  0199                     	;# 
   841  019A                     	;# 
   842  019A                     	;# 
   843  019A                     	;# 
   844  019B                     	;# 
   845  019B                     	;# 
   846  019B                     	;# 
   847  019B                     	;# 
   848  019B                     	;# 
   849  019C                     	;# 
   850  019C                     	;# 
   851  019C                     	;# 
   852  019D                     	;# 
   853  019D                     	;# 
   854  019D                     	;# 
   855  019E                     	;# 
   856  019E                     	;# 
   857  019E                     	;# 
   858  019F                     	;# 
   859  019F                     	;# 
   860  019F                     	;# 
   861  019F                     	;# 
   862  019F                     	;# 
   863  020C                     	;# 
   864  020D                     	;# 
   865  020E                     	;# 
   866  0211                     	;# 
   867  0211                     	;# 
   868  0212                     	;# 
   869  0212                     	;# 
   870  0213                     	;# 
   871  0213                     	;# 
   872  0214                     	;# 
   873  0214                     	;# 
   874  0215                     	;# 
   875  0215                     	;# 
   876  0215                     	;# 
   877  0215                     	;# 
   878  0216                     	;# 
   879  0216                     	;# 
   880  0217                     	;# 
   881  0217                     	;# 
   882  0219                     	;# 
   883  021A                     	;# 
   884  021B                     	;# 
   885  021C                     	;# 
   886  021D                     	;# 
   887  021D                     	;# 
   888  021E                     	;# 
   889  021F                     	;# 
   890  028C                     	;# 
   891  028D                     	;# 
   892  028E                     	;# 
   893  0291                     	;# 
   894  0291                     	;# 
   895  0292                     	;# 
   896  0293                     	;# 
   897  0294                     	;# 
   898  0295                     	;# 
   899  0295                     	;# 
   900  0296                     	;# 
   901  0297                     	;# 
   902  0298                     	;# 
   903  029F                     	;# 
   904  030C                     	;# 
   905  030D                     	;# 
   906  030E                     	;# 
   907  0311                     	;# 
   908  0311                     	;# 
   909  0312                     	;# 
   910  0313                     	;# 
   911  0314                     	;# 
   912  0315                     	;# 
   913  0315                     	;# 
   914  0316                     	;# 
   915  0317                     	;# 
   916  0318                     	;# 
   917  038C                     	;# 
   918  038D                     	;# 
   919  038E                     	;# 
   920  0391                     	;# 
   921  0392                     	;# 
   922  0393                     	;# 
   923  0394                     	;# 
   924  0395                     	;# 
   925  0396                     	;# 
   926  0397                     	;# 
   927  0398                     	;# 
   928  0399                     	;# 
   929  039A                     	;# 
   930  039C                     	;# 
   931  039D                     	;# 
   932  039E                     	;# 
   933  039F                     	;# 
   934  0411                     	;# 
   935  0411                     	;# 
   936  0412                     	;# 
   937  0413                     	;# 
   938  0414                     	;# 
   939  0415                     	;# 
   940  0416                     	;# 
   941  0417                     	;# 
   942  0418                     	;# 
   943  0418                     	;# 
   944  0419                     	;# 
   945  041A                     	;# 
   946  041B                     	;# 
   947  041C                     	;# 
   948  041D                     	;# 
   949  041E                     	;# 
   950  041F                     	;# 
   951  0498                     	;# 
   952  0498                     	;# 
   953  0499                     	;# 
   954  049A                     	;# 
   955  049B                     	;# 
   956  049B                     	;# 
   957  049C                     	;# 
   958  049D                     	;# 
   959  049E                     	;# 
   960  049F                     	;# 
   961  0617                     	;# 
   962  0618                     	;# 
   963  0619                     	;# 
   964  0619                     	;# 
   965  061A                     	;# 
   966  061B                     	;# 
   967  061C                     	;# 
   968  061C                     	;# 
   969  061F                     	;# 
   970  0691                     	;# 
   971  0692                     	;# 
   972  0693                     	;# 
   973  0694                     	;# 
   974  0695                     	;# 
   975  0696                     	;# 
   976  0697                     	;# 
   977  0698                     	;# 
   978  0699                     	;# 
   979  0711                     	;# 
   980  0712                     	;# 
   981  0713                     	;# 
   982  0714                     	;# 
   983  0715                     	;# 
   984  0716                     	;# 
   985  0717                     	;# 
   986  0718                     	;# 
   987  0719                     	;# 
   988  0891                     	;# 
   989  0891                     	;# 
   990  0891                     	;# 
   991  0891                     	;# 
   992  0891                     	;# 
   993  0891                     	;# 
   994  0892                     	;# 
   995  0892                     	;# 
   996  0892                     	;# 
   997  0893                     	;# 
   998  0893                     	;# 
   999  0893                     	;# 
  1000  0893                     	;# 
  1001  0893                     	;# 
  1002  0893                     	;# 
  1003  0894                     	;# 
  1004  0894                     	;# 
  1005  0894                     	;# 
  1006  0895                     	;# 
  1007  0895                     	;# 
  1008  0895                     	;# 
  1009  0896                     	;# 
  1010  0896                     	;# 
  1011  0896                     	;# 
  1012  089B                     	;# 
  1013  0911                     	;# 
  1014  0912                     	;# 
  1015  0913                     	;# 
  1016  0914                     	;# 
  1017  0915                     	;# 
  1018  0916                     	;# 
  1019  0918                     	;# 
  1020  0919                     	;# 
  1021  091A                     	;# 
  1022  091B                     	;# 
  1023  091C                     	;# 
  1024  091D                     	;# 
  1025  091E                     	;# 
  1026  091F                     	;# 
  1027  0E0F                     	;# 
  1028  0E10                     	;# 
  1029  0E11                     	;# 
  1030  0E12                     	;# 
  1031  0E13                     	;# 
  1032  0E14                     	;# 
  1033  0E15                     	;# 
  1034  0E16                     	;# 
  1035  0E17                     	;# 
  1036  0E18                     	;# 
  1037  0E19                     	;# 
  1038  0E1A                     	;# 
  1039  0E1B                     	;# 
  1040  0E1C                     	;# 
  1041  0E1D                     	;# 
  1042  0E1E                     	;# 
  1043  0E1F                     	;# 
  1044  0E20                     	;# 
  1045  0E21                     	;# 
  1046  0E22                     	;# 
  1047  0E24                     	;# 
  1048  0E25                     	;# 
  1049  0E28                     	;# 
  1050  0E29                     	;# 
  1051  0E2A                     	;# 
  1052  0E2B                     	;# 
  1053  0E2C                     	;# 
  1054  0E2D                     	;# 
  1055  0E2E                     	;# 
  1056  0E2F                     	;# 
  1057  0E90                     	;# 
  1058  0E91                     	;# 
  1059  0E92                     	;# 
  1060  0E94                     	;# 
  1061  0E95                     	;# 
  1062  0E9C                     	;# 
  1063  0E9D                     	;# 
  1064  0E9E                     	;# 
  1065  0E9F                     	;# 
  1066  0EA0                     	;# 
  1067  0EA1                     	;# 
  1068  0EA2                     	;# 
  1069  0EA3                     	;# 
  1070  0EA4                     	;# 
  1071  0EA5                     	;# 
  1072  0EA6                     	;# 
  1073  0EA7                     	;# 
  1074  0F0F                     	;# 
  1075  0F10                     	;# 
  1076  0F11                     	;# 
  1077  0F12                     	;# 
  1078  0F13                     	;# 
  1079  0F14                     	;# 
  1080  0F15                     	;# 
  1081  0F16                     	;# 
  1082  0F17                     	;# 
  1083  0F18                     	;# 
  1084  0F19                     	;# 
  1085  0F1A                     	;# 
  1086  0F1B                     	;# 
  1087  0F1C                     	;# 
  1088  0F1D                     	;# 
  1089  0F1E                     	;# 
  1090  0F1F                     	;# 
  1091  0F20                     	;# 
  1092  0F21                     	;# 
  1093  0F22                     	;# 
  1094  0F23                     	;# 
  1095  0F24                     	;# 
  1096  0F25                     	;# 
  1097  0F26                     	;# 
  1098  0F27                     	;# 
  1099  0F28                     	;# 
  1100  0F29                     	;# 
  1101  0F2A                     	;# 
  1102  0F2B                     	;# 
  1103  0F2C                     	;# 
  1104  0F2D                     	;# 
  1105  0F2E                     	;# 
  1106  0F2F                     	;# 
  1107  0F30                     	;# 
  1108  0F31                     	;# 
  1109  0F32                     	;# 
  1110  0F33                     	;# 
  1111  0F34                     	;# 
  1112  0F35                     	;# 
  1113  0F36                     	;# 
  1114  0F37                     	;# 
  1115  0FE4                     	;# 
  1116  0FE5                     	;# 
  1117  0FE6                     	;# 
  1118  0FE7                     	;# 
  1119  0FE8                     	;# 
  1120  0FE9                     	;# 
  1121  0FEA                     	;# 
  1122  0FEB                     	;# 
  1123  0FED                     	;# 
  1124  0FEE                     	;# 
  1125  0FEF                     	;# 
  1126  0000                     	;# 
  1127  0001                     	;# 
  1128  0002                     	;# 
  1129  0003                     	;# 
  1130  0004                     	;# 
  1131  0005                     	;# 
  1132  0006                     	;# 
  1133  0007                     	;# 
  1134  0008                     	;# 
  1135  0009                     	;# 
  1136  000A                     	;# 
  1137  000B                     	;# 
  1138  000C                     	;# 
  1139  000D                     	;# 
  1140  000E                     	;# 
  1141  0010                     	;# 
  1142  0011                     	;# 
  1143  0012                     	;# 
  1144  0013                     	;# 
  1145  0014                     	;# 
  1146  0015                     	;# 
  1147  0015                     	;# 
  1148  0016                     	;# 
  1149  0016                     	;# 
  1150  0017                     	;# 
  1151  0018                     	;# 
  1152  0019                     	;# 
  1153  0019                     	;# 
  1154  001A                     	;# 
  1155  001B                     	;# 
  1156  001C                     	;# 
  1157  001D                     	;# 
  1158  001E                     	;# 
  1159  001F                     	;# 
  1160  008C                     	;# 
  1161  008D                     	;# 
  1162  008E                     	;# 
  1163  0090                     	;# 
  1164  0091                     	;# 
  1165  0092                     	;# 
  1166  0093                     	;# 
  1167  0094                     	;# 
  1168  0097                     	;# 
  1169  009B                     	;# 
  1170  009B                     	;# 
  1171  009C                     	;# 
  1172  009D                     	;# 
  1173  009E                     	;# 
  1174  009F                     	;# 
  1175  010C                     	;# 
  1176  010D                     	;# 
  1177  010E                     	;# 
  1178  0111                     	;# 
  1179  0112                     	;# 
  1180  0113                     	;# 
  1181  0114                     	;# 
  1182  0115                     	;# 
  1183  0116                     	;# 
  1184  0117                     	;# 
  1185  0118                     	;# 
  1186  0119                     	;# 
  1187  018C                     	;# 
  1188  018D                     	;# 
  1189  018E                     	;# 
  1190  0197                     	;# 
  1191  0199                     	;# 
  1192  0199                     	;# 
  1193  0199                     	;# 
  1194  019A                     	;# 
  1195  019A                     	;# 
  1196  019A                     	;# 
  1197  019B                     	;# 
  1198  019B                     	;# 
  1199  019B                     	;# 
  1200  019B                     	;# 
  1201  019B                     	;# 
  1202  019C                     	;# 
  1203  019C                     	;# 
  1204  019C                     	;# 
  1205  019D                     	;# 
  1206  019D                     	;# 
  1207  019D                     	;# 
  1208  019E                     	;# 
  1209  019E                     	;# 
  1210  019E                     	;# 
  1211  019F                     	;# 
  1212  019F                     	;# 
  1213  019F                     	;# 
  1214  019F                     	;# 
  1215  019F                     	;# 
  1216  020C                     	;# 
  1217  020D                     	;# 
  1218  020E                     	;# 
  1219  0211                     	;# 
  1220  0211                     	;# 
  1221  0212                     	;# 
  1222  0212                     	;# 
  1223  0213                     	;# 
  1224  0213                     	;# 
  1225  0214                     	;# 
  1226  0214                     	;# 
  1227  0215                     	;# 
  1228  0215                     	;# 
  1229  0215                     	;# 
  1230  0215                     	;# 
  1231  0216                     	;# 
  1232  0216                     	;# 
  1233  0217                     	;# 
  1234  0217                     	;# 
  1235  0219                     	;# 
  1236  021A                     	;# 
  1237  021B                     	;# 
  1238  021C                     	;# 
  1239  021D                     	;# 
  1240  021D                     	;# 
  1241  021E                     	;# 
  1242  021F                     	;# 
  1243  028C                     	;# 
  1244  028D                     	;# 
  1245  028E                     	;# 
  1246  0291                     	;# 
  1247  0291                     	;# 
  1248  0292                     	;# 
  1249  0293                     	;# 
  1250  0294                     	;# 
  1251  0295                     	;# 
  1252  0295                     	;# 
  1253  0296                     	;# 
  1254  0297                     	;# 
  1255  0298                     	;# 
  1256  029F                     	;# 
  1257  030C                     	;# 
  1258  030D                     	;# 
  1259  030E                     	;# 
  1260  0311                     	;# 
  1261  0311                     	;# 
  1262  0312                     	;# 
  1263  0313                     	;# 
  1264  0314                     	;# 
  1265  0315                     	;# 
  1266  0315                     	;# 
  1267  0316                     	;# 
  1268  0317                     	;# 
  1269  0318                     	;# 
  1270  038C                     	;# 
  1271  038D                     	;# 
  1272  038E                     	;# 
  1273  0391                     	;# 
  1274  0392                     	;# 
  1275  0393                     	;# 
  1276  0394                     	;# 
  1277  0395                     	;# 
  1278  0396                     	;# 
  1279  0397                     	;# 
  1280  0398                     	;# 
  1281  0399                     	;# 
  1282  039A                     	;# 
  1283  039C                     	;# 
  1284  039D                     	;# 
  1285  039E                     	;# 
  1286  039F                     	;# 
  1287  0411                     	;# 
  1288  0411                     	;# 
  1289  0412                     	;# 
  1290  0413                     	;# 
  1291  0414                     	;# 
  1292  0415                     	;# 
  1293  0416                     	;# 
  1294  0417                     	;# 
  1295  0418                     	;# 
  1296  0418                     	;# 
  1297  0419                     	;# 
  1298  041A                     	;# 
  1299  041B                     	;# 
  1300  041C                     	;# 
  1301  041D                     	;# 
  1302  041E                     	;# 
  1303  041F                     	;# 
  1304  0498                     	;# 
  1305  0498                     	;# 
  1306  0499                     	;# 
  1307  049A                     	;# 
  1308  049B                     	;# 
  1309  049B                     	;# 
  1310  049C                     	;# 
  1311  049D                     	;# 
  1312  049E                     	;# 
  1313  049F                     	;# 
  1314  0617                     	;# 
  1315  0618                     	;# 
  1316  0619                     	;# 
  1317  0619                     	;# 
  1318  061A                     	;# 
  1319  061B                     	;# 
  1320  061C                     	;# 
  1321  061C                     	;# 
  1322  061F                     	;# 
  1323  0691                     	;# 
  1324  0692                     	;# 
  1325  0693                     	;# 
  1326  0694                     	;# 
  1327  0695                     	;# 
  1328  0696                     	;# 
  1329  0697                     	;# 
  1330  0698                     	;# 
  1331  0699                     	;# 
  1332  0711                     	;# 
  1333  0712                     	;# 
  1334  0713                     	;# 
  1335  0714                     	;# 
  1336  0715                     	;# 
  1337  0716                     	;# 
  1338  0717                     	;# 
  1339  0718                     	;# 
  1340  0719                     	;# 
  1341  0891                     	;# 
  1342  0891                     	;# 
  1343  0891                     	;# 
  1344  0891                     	;# 
  1345  0891                     	;# 
  1346  0891                     	;# 
  1347  0892                     	;# 
  1348  0892                     	;# 
  1349  0892                     	;# 
  1350  0893                     	;# 
  1351  0893                     	;# 
  1352  0893                     	;# 
  1353  0893                     	;# 
  1354  0893                     	;# 
  1355  0893                     	;# 
  1356  0894                     	;# 
  1357  0894                     	;# 
  1358  0894                     	;# 
  1359  0895                     	;# 
  1360  0895                     	;# 
  1361  0895                     	;# 
  1362  0896                     	;# 
  1363  0896                     	;# 
  1364  0896                     	;# 
  1365  089B                     	;# 
  1366  0911                     	;# 
  1367  0912                     	;# 
  1368  0913                     	;# 
  1369  0914                     	;# 
  1370  0915                     	;# 
  1371  0916                     	;# 
  1372  0918                     	;# 
  1373  0919                     	;# 
  1374  091A                     	;# 
  1375  091B                     	;# 
  1376  091C                     	;# 
  1377  091D                     	;# 
  1378  091E                     	;# 
  1379  091F                     	;# 
  1380  0E0F                     	;# 
  1381  0E10                     	;# 
  1382  0E11                     	;# 
  1383  0E12                     	;# 
  1384  0E13                     	;# 
  1385  0E14                     	;# 
  1386  0E15                     	;# 
  1387  0E16                     	;# 
  1388  0E17                     	;# 
  1389  0E18                     	;# 
  1390  0E19                     	;# 
  1391  0E1A                     	;# 
  1392  0E1B                     	;# 
  1393  0E1C                     	;# 
  1394  0E1D                     	;# 
  1395  0E1E                     	;# 
  1396  0E1F                     	;# 
  1397  0E20                     	;# 
  1398  0E21                     	;# 
  1399  0E22                     	;# 
  1400  0E24                     	;# 
  1401  0E25                     	;# 
  1402  0E28                     	;# 
  1403  0E29                     	;# 
  1404  0E2A                     	;# 
  1405  0E2B                     	;# 
  1406  0E2C                     	;# 
  1407  0E2D                     	;# 
  1408  0E2E                     	;# 
  1409  0E2F                     	;# 
  1410  0E90                     	;# 
  1411  0E91                     	;# 
  1412  0E92                     	;# 
  1413  0E94                     	;# 
  1414  0E95                     	;# 
  1415  0E9C                     	;# 
  1416  0E9D                     	;# 
  1417  0E9E                     	;# 
  1418  0E9F                     	;# 
  1419  0EA0                     	;# 
  1420  0EA1                     	;# 
  1421  0EA2                     	;# 
  1422  0EA3                     	;# 
  1423  0EA4                     	;# 
  1424  0EA5                     	;# 
  1425  0EA6                     	;# 
  1426  0EA7                     	;# 
  1427  0F0F                     	;# 
  1428  0F10                     	;# 
  1429  0F11                     	;# 
  1430  0F12                     	;# 
  1431  0F13                     	;# 
  1432  0F14                     	;# 
  1433  0F15                     	;# 
  1434  0F16                     	;# 
  1435  0F17                     	;# 
  1436  0F18                     	;# 
  1437  0F19                     	;# 
  1438  0F1A                     	;# 
  1439  0F1B                     	;# 
  1440  0F1C                     	;# 
  1441  0F1D                     	;# 
  1442  0F1E                     	;# 
  1443  0F1F                     	;# 
  1444  0F20                     	;# 
  1445  0F21                     	;# 
  1446  0F22                     	;# 
  1447  0F23                     	;# 
  1448  0F24                     	;# 
  1449  0F25                     	;# 
  1450  0F26                     	;# 
  1451  0F27                     	;# 
  1452  0F28                     	;# 
  1453  0F29                     	;# 
  1454  0F2A                     	;# 
  1455  0F2B                     	;# 
  1456  0F2C                     	;# 
  1457  0F2D                     	;# 
  1458  0F2E                     	;# 
  1459  0F2F                     	;# 
  1460  0F30                     	;# 
  1461  0F31                     	;# 
  1462  0F32                     	;# 
  1463  0F33                     	;# 
  1464  0F34                     	;# 
  1465  0F35                     	;# 
  1466  0F36                     	;# 
  1467  0F37                     	;# 
  1468  0FE4                     	;# 
  1469  0FE5                     	;# 
  1470  0FE6                     	;# 
  1471  0FE7                     	;# 
  1472  0FE8                     	;# 
  1473  0FE9                     	;# 
  1474  0FEA                     	;# 
  1475  0FEB                     	;# 
  1476  0FED                     	;# 
  1477  0FEE                     	;# 
  1478  0FEF                     	;# 
  1479  0000                     	;# 
  1480  0001                     	;# 
  1481  0002                     	;# 
  1482  0003                     	;# 
  1483  0004                     	;# 
  1484  0005                     	;# 
  1485  0006                     	;# 
  1486  0007                     	;# 
  1487  0008                     	;# 
  1488  0009                     	;# 
  1489  000A                     	;# 
  1490  000B                     	;# 
  1491  000C                     	;# 
  1492  000D                     	;# 
  1493  000E                     	;# 
  1494  0010                     	;# 
  1495  0011                     	;# 
  1496  0012                     	;# 
  1497  0013                     	;# 
  1498  0014                     	;# 
  1499  0015                     	;# 
  1500  0015                     	;# 
  1501  0016                     	;# 
  1502  0016                     	;# 
  1503  0017                     	;# 
  1504  0018                     	;# 
  1505  0019                     	;# 
  1506  0019                     	;# 
  1507  001A                     	;# 
  1508  001B                     	;# 
  1509  001C                     	;# 
  1510  001D                     	;# 
  1511  001E                     	;# 
  1512  001F                     	;# 
  1513  008C                     	;# 
  1514  008D                     	;# 
  1515  008E                     	;# 
  1516  0090                     	;# 
  1517  0091                     	;# 
  1518  0092                     	;# 
  1519  0093                     	;# 
  1520  0094                     	;# 
  1521  0097                     	;# 
  1522  009B                     	;# 
  1523  009B                     	;# 
  1524  009C                     	;# 
  1525  009D                     	;# 
  1526  009E                     	;# 
  1527  009F                     	;# 
  1528  010C                     	;# 
  1529  010D                     	;# 
  1530  010E                     	;# 
  1531  0111                     	;# 
  1532  0112                     	;# 
  1533  0113                     	;# 
  1534  0114                     	;# 
  1535  0115                     	;# 
  1536  0116                     	;# 
  1537  0117                     	;# 
  1538  0118                     	;# 
  1539  0119                     	;# 
  1540  018C                     	;# 
  1541  018D                     	;# 
  1542  018E                     	;# 
  1543  0197                     	;# 
  1544  0199                     	;# 
  1545  0199                     	;# 
  1546  0199                     	;# 
  1547  019A                     	;# 
  1548  019A                     	;# 
  1549  019A                     	;# 
  1550  019B                     	;# 
  1551  019B                     	;# 
  1552  019B                     	;# 
  1553  019B                     	;# 
  1554  019B                     	;# 
  1555  019C                     	;# 
  1556  019C                     	;# 
  1557  019C                     	;# 
  1558  019D                     	;# 
  1559  019D                     	;# 
  1560  019D                     	;# 
  1561  019E                     	;# 
  1562  019E                     	;# 
  1563  019E                     	;# 
  1564  019F                     	;# 
  1565  019F                     	;# 
  1566  019F                     	;# 
  1567  019F                     	;# 
  1568  019F                     	;# 
  1569  020C                     	;# 
  1570  020D                     	;# 
  1571  020E                     	;# 
  1572  0211                     	;# 
  1573  0211                     	;# 
  1574  0212                     	;# 
  1575  0212                     	;# 
  1576  0213                     	;# 
  1577  0213                     	;# 
  1578  0214                     	;# 
  1579  0214                     	;# 
  1580  0215                     	;# 
  1581  0215                     	;# 
  1582  0215                     	;# 
  1583  0215                     	;# 
  1584  0216                     	;# 
  1585  0216                     	;# 
  1586  0217                     	;# 
  1587  0217                     	;# 
  1588  0219                     	;# 
  1589  021A                     	;# 
  1590  021B                     	;# 
  1591  021C                     	;# 
  1592  021D                     	;# 
  1593  021D                     	;# 
  1594  021E                     	;# 
  1595  021F                     	;# 
  1596  028C                     	;# 
  1597  028D                     	;# 
  1598  028E                     	;# 
  1599  0291                     	;# 
  1600  0291                     	;# 
  1601  0292                     	;# 
  1602  0293                     	;# 
  1603  0294                     	;# 
  1604  0295                     	;# 
  1605  0295                     	;# 
  1606  0296                     	;# 
  1607  0297                     	;# 
  1608  0298                     	;# 
  1609  029F                     	;# 
  1610  030C                     	;# 
  1611  030D                     	;# 
  1612  030E                     	;# 
  1613  0311                     	;# 
  1614  0311                     	;# 
  1615  0312                     	;# 
  1616  0313                     	;# 
  1617  0314                     	;# 
  1618  0315                     	;# 
  1619  0315                     	;# 
  1620  0316                     	;# 
  1621  0317                     	;# 
  1622  0318                     	;# 
  1623  038C                     	;# 
  1624  038D                     	;# 
  1625  038E                     	;# 
  1626  0391                     	;# 
  1627  0392                     	;# 
  1628  0393                     	;# 
  1629  0394                     	;# 
  1630  0395                     	;# 
  1631  0396                     	;# 
  1632  0397                     	;# 
  1633  0398                     	;# 
  1634  0399                     	;# 
  1635  039A                     	;# 
  1636  039C                     	;# 
  1637  039D                     	;# 
  1638  039E                     	;# 
  1639  039F                     	;# 
  1640  0411                     	;# 
  1641  0411                     	;# 
  1642  0412                     	;# 
  1643  0413                     	;# 
  1644  0414                     	;# 
  1645  0415                     	;# 
  1646  0416                     	;# 
  1647  0417                     	;# 
  1648  0418                     	;# 
  1649  0418                     	;# 
  1650  0419                     	;# 
  1651  041A                     	;# 
  1652  041B                     	;# 
  1653  041C                     	;# 
  1654  041D                     	;# 
  1655  041E                     	;# 
  1656  041F                     	;# 
  1657  0498                     	;# 
  1658  0498                     	;# 
  1659  0499                     	;# 
  1660  049A                     	;# 
  1661  049B                     	;# 
  1662  049B                     	;# 
  1663  049C                     	;# 
  1664  049D                     	;# 
  1665  049E                     	;# 
  1666  049F                     	;# 
  1667  0617                     	;# 
  1668  0618                     	;# 
  1669  0619                     	;# 
  1670  0619                     	;# 
  1671  061A                     	;# 
  1672  061B                     	;# 
  1673  061C                     	;# 
  1674  061C                     	;# 
  1675  061F                     	;# 
  1676  0691                     	;# 
  1677  0692                     	;# 
  1678  0693                     	;# 
  1679  0694                     	;# 
  1680  0695                     	;# 
  1681  0696                     	;# 
  1682  0697                     	;# 
  1683  0698                     	;# 
  1684  0699                     	;# 
  1685  0711                     	;# 
  1686  0712                     	;# 
  1687  0713                     	;# 
  1688  0714                     	;# 
  1689  0715                     	;# 
  1690  0716                     	;# 
  1691  0717                     	;# 
  1692  0718                     	;# 
  1693  0719                     	;# 
  1694  0891                     	;# 
  1695  0891                     	;# 
  1696  0891                     	;# 
  1697  0891                     	;# 
  1698  0891                     	;# 
  1699  0891                     	;# 
  1700  0892                     	;# 
  1701  0892                     	;# 
  1702  0892                     	;# 
  1703  0893                     	;# 
  1704  0893                     	;# 
  1705  0893                     	;# 
  1706  0893                     	;# 
  1707  0893                     	;# 
  1708  0893                     	;# 
  1709  0894                     	;# 
  1710  0894                     	;# 
  1711  0894                     	;# 
  1712  0895                     	;# 
  1713  0895                     	;# 
  1714  0895                     	;# 
  1715  0896                     	;# 
  1716  0896                     	;# 
  1717  0896                     	;# 
  1718  089B                     	;# 
  1719  0911                     	;# 
  1720  0912                     	;# 
  1721  0913                     	;# 
  1722  0914                     	;# 
  1723  0915                     	;# 
  1724  0916                     	;# 
  1725  0918                     	;# 
  1726  0919                     	;# 
  1727  091A                     	;# 
  1728  091B                     	;# 
  1729  091C                     	;# 
  1730  091D                     	;# 
  1731  091E                     	;# 
  1732  091F                     	;# 
  1733  0E0F                     	;# 
  1734  0E10                     	;# 
  1735  0E11                     	;# 
  1736  0E12                     	;# 
  1737  0E13                     	;# 
  1738  0E14                     	;# 
  1739  0E15                     	;# 
  1740  0E16                     	;# 
  1741  0E17                     	;# 
  1742  0E18                     	;# 
  1743  0E19                     	;# 
  1744  0E1A                     	;# 
  1745  0E1B                     	;# 
  1746  0E1C                     	;# 
  1747  0E1D                     	;# 
  1748  0E1E                     	;# 
  1749  0E1F                     	;# 
  1750  0E20                     	;# 
  1751  0E21                     	;# 
  1752  0E22                     	;# 
  1753  0E24                     	;# 
  1754  0E25                     	;# 
  1755  0E28                     	;# 
  1756  0E29                     	;# 
  1757  0E2A                     	;# 
  1758  0E2B                     	;# 
  1759  0E2C                     	;# 
  1760  0E2D                     	;# 
  1761  0E2E                     	;# 
  1762  0E2F                     	;# 
  1763  0E90                     	;# 
  1764  0E91                     	;# 
  1765  0E92                     	;# 
  1766  0E94                     	;# 
  1767  0E95                     	;# 
  1768  0E9C                     	;# 
  1769  0E9D                     	;# 
  1770  0E9E                     	;# 
  1771  0E9F                     	;# 
  1772  0EA0                     	;# 
  1773  0EA1                     	;# 
  1774  0EA2                     	;# 
  1775  0EA3                     	;# 
  1776  0EA4                     	;# 
  1777  0EA5                     	;# 
  1778  0EA6                     	;# 
  1779  0EA7                     	;# 
  1780  0F0F                     	;# 
  1781  0F10                     	;# 
  1782  0F11                     	;# 
  1783  0F12                     	;# 
  1784  0F13                     	;# 
  1785  0F14                     	;# 
  1786  0F15                     	;# 
  1787  0F16                     	;# 
  1788  0F17                     	;# 
  1789  0F18                     	;# 
  1790  0F19                     	;# 
  1791  0F1A                     	;# 
  1792  0F1B                     	;# 
  1793  0F1C                     	;# 
  1794  0F1D                     	;# 
  1795  0F1E                     	;# 
  1796  0F1F                     	;# 
  1797  0F20                     	;# 
  1798  0F21                     	;# 
  1799  0F22                     	;# 
  1800  0F23                     	;# 
  1801  0F24                     	;# 
  1802  0F25                     	;# 
  1803  0F26                     	;# 
  1804  0F27                     	;# 
  1805  0F28                     	;# 
  1806  0F29                     	;# 
  1807  0F2A                     	;# 
  1808  0F2B                     	;# 
  1809  0F2C                     	;# 
  1810  0F2D                     	;# 
  1811  0F2E                     	;# 
  1812  0F2F                     	;# 
  1813  0F30                     	;# 
  1814  0F31                     	;# 
  1815  0F32                     	;# 
  1816  0F33                     	;# 
  1817  0F34                     	;# 
  1818  0F35                     	;# 
  1819  0F36                     	;# 
  1820  0F37                     	;# 
  1821  0FE4                     	;# 
  1822  0FE5                     	;# 
  1823  0FE6                     	;# 
  1824  0FE7                     	;# 
  1825  0FE8                     	;# 
  1826  0FE9                     	;# 
  1827  0FEA                     	;# 
  1828  0FEB                     	;# 
  1829  0FED                     	;# 
  1830  0FEE                     	;# 
  1831  0FEF                     	;# 
  1832  0000                     	;# 
  1833  0001                     	;# 
  1834  0002                     	;# 
  1835  0003                     	;# 
  1836  0004                     	;# 
  1837  0005                     	;# 
  1838  0006                     	;# 
  1839  0007                     	;# 
  1840  0008                     	;# 
  1841  0009                     	;# 
  1842  000A                     	;# 
  1843  000B                     	;# 
  1844  000C                     	;# 
  1845  000D                     	;# 
  1846  000E                     	;# 
  1847  0010                     	;# 
  1848  0011                     	;# 
  1849  0012                     	;# 
  1850  0013                     	;# 
  1851  0014                     	;# 
  1852  0015                     	;# 
  1853  0015                     	;# 
  1854  0016                     	;# 
  1855  0016                     	;# 
  1856  0017                     	;# 
  1857  0018                     	;# 
  1858  0019                     	;# 
  1859  0019                     	;# 
  1860  001A                     	;# 
  1861  001B                     	;# 
  1862  001C                     	;# 
  1863  001D                     	;# 
  1864  001E                     	;# 
  1865  001F                     	;# 
  1866  008C                     	;# 
  1867  008D                     	;# 
  1868  008E                     	;# 
  1869  0090                     	;# 
  1870  0091                     	;# 
  1871  0092                     	;# 
  1872  0093                     	;# 
  1873  0094                     	;# 
  1874  0097                     	;# 
  1875  009B                     	;# 
  1876  009B                     	;# 
  1877  009C                     	;# 
  1878  009D                     	;# 
  1879  009E                     	;# 
  1880  009F                     	;# 
  1881  010C                     	;# 
  1882  010D                     	;# 
  1883  010E                     	;# 
  1884  0111                     	;# 
  1885  0112                     	;# 
  1886  0113                     	;# 
  1887  0114                     	;# 
  1888  0115                     	;# 
  1889  0116                     	;# 
  1890  0117                     	;# 
  1891  0118                     	;# 
  1892  0119                     	;# 
  1893  018C                     	;# 
  1894  018D                     	;# 
  1895  018E                     	;# 
  1896  0197                     	;# 
  1897  0199                     	;# 
  1898  0199                     	;# 
  1899  0199                     	;# 
  1900  019A                     	;# 
  1901  019A                     	;# 
  1902  019A                     	;# 
  1903  019B                     	;# 
  1904  019B                     	;# 
  1905  019B                     	;# 
  1906  019B                     	;# 
  1907  019B                     	;# 
  1908  019C                     	;# 
  1909  019C                     	;# 
  1910  019C                     	;# 
  1911  019D                     	;# 
  1912  019D                     	;# 
  1913  019D                     	;# 
  1914  019E                     	;# 
  1915  019E                     	;# 
  1916  019E                     	;# 
  1917  019F                     	;# 
  1918  019F                     	;# 
  1919  019F                     	;# 
  1920  019F                     	;# 
  1921  019F                     	;# 
  1922  020C                     	;# 
  1923  020D                     	;# 
  1924  020E                     	;# 
  1925  0211                     	;# 
  1926  0211                     	;# 
  1927  0212                     	;# 
  1928  0212                     	;# 
  1929  0213                     	;# 
  1930  0213                     	;# 
  1931  0214                     	;# 
  1932  0214                     	;# 
  1933  0215                     	;# 
  1934  0215                     	;# 
  1935  0215                     	;# 
  1936  0215                     	;# 
  1937  0216                     	;# 
  1938  0216                     	;# 
  1939  0217                     	;# 
  1940  0217                     	;# 
  1941  0219                     	;# 
  1942  021A                     	;# 
  1943  021B                     	;# 
  1944  021C                     	;# 
  1945  021D                     	;# 
  1946  021D                     	;# 
  1947  021E                     	;# 
  1948  021F                     	;# 
  1949  028C                     	;# 
  1950  028D                     	;# 
  1951  028E                     	;# 
  1952  0291                     	;# 
  1953  0291                     	;# 
  1954  0292                     	;# 
  1955  0293                     	;# 
  1956  0294                     	;# 
  1957  0295                     	;# 
  1958  0295                     	;# 
  1959  0296                     	;# 
  1960  0297                     	;# 
  1961  0298                     	;# 
  1962  029F                     	;# 
  1963  030C                     	;# 
  1964  030D                     	;# 
  1965  030E                     	;# 
  1966  0311                     	;# 
  1967  0311                     	;# 
  1968  0312                     	;# 
  1969  0313                     	;# 
  1970  0314                     	;# 
  1971  0315                     	;# 
  1972  0315                     	;# 
  1973  0316                     	;# 
  1974  0317                     	;# 
  1975  0318                     	;# 
  1976  038C                     	;# 
  1977  038D                     	;# 
  1978  038E                     	;# 
  1979  0391                     	;# 
  1980  0392                     	;# 
  1981  0393                     	;# 
  1982  0394                     	;# 
  1983  0395                     	;# 
  1984  0396                     	;# 
  1985  0397                     	;# 
  1986  0398                     	;# 
  1987  0399                     	;# 
  1988  039A                     	;# 
  1989  039C                     	;# 
  1990  039D                     	;# 
  1991  039E                     	;# 
  1992  039F                     	;# 
  1993  0411                     	;# 
  1994  0411                     	;# 
  1995  0412                     	;# 
  1996  0413                     	;# 
  1997  0414                     	;# 
  1998  0415                     	;# 
  1999  0416                     	;# 
  2000  0417                     	;# 
  2001  0418                     	;# 
  2002  0418                     	;# 
  2003  0419                     	;# 
  2004  041A                     	;# 
  2005  041B                     	;# 
  2006  041C                     	;# 
  2007  041D                     	;# 
  2008  041E                     	;# 
  2009  041F                     	;# 
  2010  0498                     	;# 
  2011  0498                     	;# 
  2012  0499                     	;# 
  2013  049A                     	;# 
  2014  049B                     	;# 
  2015  049B                     	;# 
  2016  049C                     	;# 
  2017  049D                     	;# 
  2018  049E                     	;# 
  2019  049F                     	;# 
  2020  0617                     	;# 
  2021  0618                     	;# 
  2022  0619                     	;# 
  2023  0619                     	;# 
  2024  061A                     	;# 
  2025  061B                     	;# 
  2026  061C                     	;# 
  2027  061C                     	;# 
  2028  061F                     	;# 
  2029  0691                     	;# 
  2030  0692                     	;# 
  2031  0693                     	;# 
  2032  0694                     	;# 
  2033  0695                     	;# 
  2034  0696                     	;# 
  2035  0697                     	;# 
  2036  0698                     	;# 
  2037  0699                     	;# 
  2038  0711                     	;# 
  2039  0712                     	;# 
  2040  0713                     	;# 
  2041  0714                     	;# 
  2042  0715                     	;# 
  2043  0716                     	;# 
  2044  0717                     	;# 
  2045  0718                     	;# 
  2046  0719                     	;# 
  2047  0891                     	;# 
  2048  0891                     	;# 
  2049  0891                     	;# 
  2050  0891                     	;# 
  2051  0891                     	;# 
  2052  0891                     	;# 
  2053  0892                     	;# 
  2054  0892                     	;# 
  2055  0892                     	;# 
  2056  0893                     	;# 
  2057  0893                     	;# 
  2058  0893                     	;# 
  2059  0893                     	;# 
  2060  0893                     	;# 
  2061  0893                     	;# 
  2062  0894                     	;# 
  2063  0894                     	;# 
  2064  0894                     	;# 
  2065  0895                     	;# 
  2066  0895                     	;# 
  2067  0895                     	;# 
  2068  0896                     	;# 
  2069  0896                     	;# 
  2070  0896                     	;# 
  2071  089B                     	;# 
  2072  0911                     	;# 
  2073  0912                     	;# 
  2074  0913                     	;# 
  2075  0914                     	;# 
  2076  0915                     	;# 
  2077  0916                     	;# 
  2078  0918                     	;# 
  2079  0919                     	;# 
  2080  091A                     	;# 
  2081  091B                     	;# 
  2082  091C                     	;# 
  2083  091D                     	;# 
  2084  091E                     	;# 
  2085  091F                     	;# 
  2086  0E0F                     	;# 
  2087  0E10                     	;# 
  2088  0E11                     	;# 
  2089  0E12                     	;# 
  2090  0E13                     	;# 
  2091  0E14                     	;# 
  2092  0E15                     	;# 
  2093  0E16                     	;# 
  2094  0E17                     	;# 
  2095  0E18                     	;# 
  2096  0E19                     	;# 
  2097  0E1A                     	;# 
  2098  0E1B                     	;# 
  2099  0E1C                     	;# 
  2100  0E1D                     	;# 
  2101  0E1E                     	;# 
  2102  0E1F                     	;# 
  2103  0E20                     	;# 
  2104  0E21                     	;# 
  2105  0E22                     	;# 
  2106  0E24                     	;# 
  2107  0E25                     	;# 
  2108  0E28                     	;# 
  2109  0E29                     	;# 
  2110  0E2A                     	;# 
  2111  0E2B                     	;# 
  2112  0E2C                     	;# 
  2113  0E2D                     	;# 
  2114  0E2E                     	;# 
  2115  0E2F                     	;# 
  2116  0E90                     	;# 
  2117  0E91                     	;# 
  2118  0E92                     	;# 
  2119  0E94                     	;# 
  2120  0E95                     	;# 
  2121  0E9C                     	;# 
  2122  0E9D                     	;# 
  2123  0E9E                     	;# 
  2124  0E9F                     	;# 
  2125  0EA0                     	;# 
  2126  0EA1                     	;# 
  2127  0EA2                     	;# 
  2128  0EA3                     	;# 
  2129  0EA4                     	;# 
  2130  0EA5                     	;# 
  2131  0EA6                     	;# 
  2132  0EA7                     	;# 
  2133  0F0F                     	;# 
  2134  0F10                     	;# 
  2135  0F11                     	;# 
  2136  0F12                     	;# 
  2137  0F13                     	;# 
  2138  0F14                     	;# 
  2139  0F15                     	;# 
  2140  0F16                     	;# 
  2141  0F17                     	;# 
  2142  0F18                     	;# 
  2143  0F19                     	;# 
  2144  0F1A                     	;# 
  2145  0F1B                     	;# 
  2146  0F1C                     	;# 
  2147  0F1D                     	;# 
  2148  0F1E                     	;# 
  2149  0F1F                     	;# 
  2150  0F20                     	;# 
  2151  0F21                     	;# 
  2152  0F22                     	;# 
  2153  0F23                     	;# 
  2154  0F24                     	;# 
  2155  0F25                     	;# 
  2156  0F26                     	;# 
  2157  0F27                     	;# 
  2158  0F28                     	;# 
  2159  0F29                     	;# 
  2160  0F2A                     	;# 
  2161  0F2B                     	;# 
  2162  0F2C                     	;# 
  2163  0F2D                     	;# 
  2164  0F2E                     	;# 
  2165  0F2F                     	;# 
  2166  0F30                     	;# 
  2167  0F31                     	;# 
  2168  0F32                     	;# 
  2169  0F33                     	;# 
  2170  0F34                     	;# 
  2171  0F35                     	;# 
  2172  0F36                     	;# 
  2173  0F37                     	;# 
  2174  0FE4                     	;# 
  2175  0FE5                     	;# 
  2176  0FE6                     	;# 
  2177  0FE7                     	;# 
  2178  0FE8                     	;# 
  2179  0FE9                     	;# 
  2180  0FEA                     	;# 
  2181  0FEB                     	;# 
  2182  0FED                     	;# 
  2183  0FEE                     	;# 
  2184  0FEF                     	;# 
  2185  0017                     _T0CON0bits	set	23
  2186  0017                     _T0CON0	set	23
  2187  0015                     _TMR0L	set	21
  2188  0016                     _TMR0H	set	22
  2189  0018                     _T0CON1	set	24
  2190  0010                     _PIR0bits	set	16
  2191  000B                     _INTCONbits	set	11
  2192  0014                     _PIR4	set	20
  2193  0013                     _PIR3	set	19
  2194  0012                     _PIR2	set	18
  2195  0011                     _PIR1	set	17
  2196  0010                     _PIR0	set	16
  2197  0090                     _PIE0bits	set	144
  2198  0097                     _WDTCON	set	151
  2199  008E                     _TRISC	set	142
  2200  008D                     _TRISB	set	141
  2201  008C                     _TRISA	set	140
  2202  0094                     _PIE4	set	148
  2203  0093                     _PIE3	set	147
  2204  0092                     _PIE2	set	146
  2205  0091                     _PIE1	set	145
  2206  0090                     _PIE0	set	144
  2207  008D                     _TRISBbits	set	141
  2208  008E                     _TRISCbits	set	142
  2209  008C                     _TRISAbits	set	140
  2210  010E                     _LATC	set	270
  2211  010D                     _LATB	set	269
  2212  010C                     _LATA	set	268
  2213  010D                     _LATBbits	set	269
  2214  010E                     _LATCbits	set	270
  2215  010C                     _LATAbits	set	268
  2216  018C                     _ANSELA	set	396
  2217  018D                     _ANSELB	set	397
  2218  018E                     _ANSELC	set	398
  2219  020E                     _WPUC	set	526
  2220  020C                     _WPUA	set	524
  2221  020D                     _WPUB	set	525
  2222  028E                     _ODCONC	set	654
  2223  028D                     _ODCONB	set	653
  2224  028C                     _ODCONA	set	652
  2225  030E                     _SLRCONC	set	782
  2226  030D                     _SLRCONB	set	781
  2227  030C                     _SLRCONA	set	780
  2228  038E                     _INLVLC	set	910
  2229  038D                     _INLVLB	set	909
  2230  038C                     _INLVLA	set	908
  2231  0916                     _PMD5	set	2326
  2232  0915                     _PMD4	set	2325
  2233  0914                     _PMD3	set	2324
  2234  0913                     _PMD2	set	2323
  2235  0912                     _PMD1	set	2322
  2236  0911                     _PMD0	set	2321
  2237  091E                     _OSCTUNE	set	2334
  2238  091F                     _OSCFRQ	set	2335
  2239  091D                     _OSCEN	set	2333
  2240  091B                     _OSCCON3	set	2331
  2241  0919                     _OSCCON1	set	2329
  2242  48E0                     _PLLR	set	18656
  2243                           
  2244                           	psect	stringtext1
  2245  0073                     __pstringtext1:
  2246  0073                     STR_2:
  2247  0073  3445               	retlw	69	;'E'
  2248  0074  3452               	retlw	82	;'R'
  2249  0075  3452               	retlw	82	;'R'
  2250  0076  344F               	retlw	79	;'O'
  2251  0077  3452               	retlw	82	;'R'
  2252  0078  3421               	retlw	33	;'!'
  2253  0079  3420               	retlw	32	;' '
  2254  007A  3474               	retlw	116	;'t'
  2255  007B  3472               	retlw	114	;'r'
  2256  007C  3469               	retlw	105	;'i'
  2257  007D  3467               	retlw	103	;'g'
  2258  007E  3450               	retlw	80	;'P'
  2259  007F  3469               	retlw	105	;'i'
  2260  0080  346E               	retlw	110	;'n'
  2261  0081  3420               	retlw	32	;' '
  2262  0082  346D               	retlw	109	;'m'
  2263  0083  3461               	retlw	97	;'a'
  2264  0084  3479               	retlw	121	;'y'
  2265  0085  3420               	retlw	32	;' '
  2266  0086  346E               	retlw	110	;'n'
  2267  0087  346F               	retlw	111	;'o'
  2268  0088  3474               	retlw	116	;'t'
  2269  0089  3420               	retlw	32	;' '
  2270  008A  3462               	retlw	98	;'b'
  2271  008B  3465               	retlw	101	;'e'
  2272  008C  3420               	retlw	32	;' '
  2273  008D  3461               	retlw	97	;'a'
  2274  008E  346E               	retlw	110	;'n'
  2275  008F  3479               	retlw	121	;'y'
  2276  0090  3420               	retlw	32	;' '
  2277  0091  346F               	retlw	111	;'o'
  2278  0092  3466               	retlw	102	;'f'
  2279  0093  3420               	retlw	32	;' '
  2280  0094  3474               	retlw	116	;'t'
  2281  0095  3468               	retlw	104	;'h'
  2282  0096  3465               	retlw	101	;'e'
  2283  0097  3420               	retlw	32	;' '
  2284  0098  3466               	retlw	102	;'f'
  2285  0099  346F               	retlw	111	;'o'
  2286  009A  346C               	retlw	108	;'l'
  2287  009B  346C               	retlw	108	;'l'
  2288  009C  346F               	retlw	111	;'o'
  2289  009D  3477               	retlw	119	;'w'
  2290  009E  3469               	retlw	105	;'i'
  2291  009F  346E               	retlw	110	;'n'
  2292  00A0  3467               	retlw	103	;'g'
  2293  00A1  343A               	retlw	58	;':'
  2294  00A2  3420               	retlw	32	;' '
  2295  00A3  345B               	retlw	91	;'['
  2296  00A4  3452               	retlw	82	;'R'
  2297  00A5  3441               	retlw	65	;'A'
  2298  00A6  3432               	retlw	50	;'2'
  2299  00A7  342C               	retlw	44	;','
  2300  00A8  3420               	retlw	32	;' '
  2301  00A9  3452               	retlw	82	;'R'
  2302  00AA  3441               	retlw	65	;'A'
  2303  00AB  3434               	retlw	52	;'4'
  2304  00AC  342C               	retlw	44	;','
  2305  00AD  3420               	retlw	32	;' '
  2306  00AE  3452               	retlw	82	;'R'
  2307  00AF  3443               	retlw	67	;'C'
  2308  00B0  3433               	retlw	51	;'3'
  2309  00B1  342C               	retlw	44	;','
  2310  00B2  3420               	retlw	32	;' '
  2311  00B3  3452               	retlw	82	;'R'
  2312  00B4  3443               	retlw	67	;'C'
  2313  00B5  3435               	retlw	53	;'5'
  2314  00B6  342C               	retlw	44	;','
  2315  00B7  3420               	retlw	32	;' '
  2316  00B8  3452               	retlw	82	;'R'
  2317  00B9  3441               	retlw	65	;'A'
  2318  00BA  3433               	retlw	51	;'3'
  2319  00BB  345D               	retlw	93	;']'
  2320  00BC  340A               	retlw	10
  2321  00BD  3400               	retlw	0
  2322                           
  2323                           	psect	stringtext2
  2324  00BE                     __pstringtext2:
  2325  00BE                     STR_1:
  2326  00BE  3445               	retlw	69	;'E'
  2327  00BF  3452               	retlw	82	;'R'
  2328  00C0  3452               	retlw	82	;'R'
  2329  00C1  344F               	retlw	79	;'O'
  2330  00C2  3452               	retlw	82	;'R'
  2331  00C3  3421               	retlw	33	;'!'
  2332  00C4  3420               	retlw	32	;' '
  2333  00C5  3465               	retlw	101	;'e'
  2334  00C6  3463               	retlw	99	;'c'
  2335  00C7  3468               	retlw	104	;'h'
  2336  00C8  346F               	retlw	111	;'o'
  2337  00C9  3450               	retlw	80	;'P'
  2338  00CA  3469               	retlw	105	;'i'
  2339  00CB  346E               	retlw	110	;'n'
  2340  00CC  3420               	retlw	32	;' '
  2341  00CD  346D               	retlw	109	;'m'
  2342  00CE  3475               	retlw	117	;'u'
  2343  00CF  3473               	retlw	115	;'s'
  2344  00D0  3474               	retlw	116	;'t'
  2345  00D1  3420               	retlw	32	;' '
  2346  00D2  3462               	retlw	98	;'b'
  2347  00D3  3465               	retlw	101	;'e'
  2348  00D4  3420               	retlw	32	;' '
  2349  00D5  346F               	retlw	111	;'o'
  2350  00D6  346E               	retlw	110	;'n'
  2351  00D7  3465               	retlw	101	;'e'
  2352  00D8  3420               	retlw	32	;' '
  2353  00D9  346F               	retlw	111	;'o'
  2354  00DA  3466               	retlw	102	;'f'
  2355  00DB  3420               	retlw	32	;' '
  2356  00DC  3474               	retlw	116	;'t'
  2357  00DD  3468               	retlw	104	;'h'
  2358  00DE  3465               	retlw	101	;'e'
  2359  00DF  3420               	retlw	32	;' '
  2360  00E0  3466               	retlw	102	;'f'
  2361  00E1  346F               	retlw	111	;'o'
  2362  00E2  346C               	retlw	108	;'l'
  2363  00E3  346C               	retlw	108	;'l'
  2364  00E4  346F               	retlw	111	;'o'
  2365  00E5  3477               	retlw	119	;'w'
  2366  00E6  3469               	retlw	105	;'i'
  2367  00E7  346E               	retlw	110	;'n'
  2368  00E8  3467               	retlw	103	;'g'
  2369  00E9  343A               	retlw	58	;':'
  2370  00EA  3420               	retlw	32	;' '
  2371  00EB  345B               	retlw	91	;'['
  2372  00EC  3452               	retlw	82	;'R'
  2373  00ED  3441               	retlw	65	;'A'
  2374  00EE  3432               	retlw	50	;'2'
  2375  00EF  342C               	retlw	44	;','
  2376  00F0  3420               	retlw	32	;' '
  2377  00F1  3452               	retlw	82	;'R'
  2378  00F2  3441               	retlw	65	;'A'
  2379  00F3  3434               	retlw	52	;'4'
  2380  00F4  342C               	retlw	44	;','
  2381  00F5  3420               	retlw	32	;' '
  2382  00F6  3452               	retlw	82	;'R'
  2383  00F7  3443               	retlw	67	;'C'
  2384  00F8  3433               	retlw	51	;'3'
  2385  00F9  342C               	retlw	44	;','
  2386  00FA  3420               	retlw	32	;' '
  2387  00FB  3452               	retlw	82	;'R'
  2388  00FC  3443               	retlw	67	;'C'
  2389  00FD  3435               	retlw	53	;'5'
  2390  00FE  345D               	retlw	93	;']'
  2391  00FF  340A               	retlw	10
  2392  0100  3400               	retlw	0
  2393                           
  2394                           	psect	stringtext3
  2395  0000                     __pstringtext3:
  2396                           
  2397                           	psect	cinit
  2398  0012                     start_initialization:	
  2399                           ; #config settings
  2400                           
  2401  0012                     __initialization:
  2402                           
  2403                           ; Clear objects allocated to COMMON
  2404  0012  01F8               	clrf	__pbssCOMMON& (0+127)
  2405  0013  01F9               	clrf	(__pbssCOMMON+1)& (0+127)
  2406  0014  01FA               	clrf	(__pbssCOMMON+2)& (0+127)
  2407  0015  01FB               	clrf	(__pbssCOMMON+3)& (0+127)
  2408                           
  2409                           ; Clear objects allocated to BANK0
  2410  0016  0020               	movlb	0	; select bank0
  2411  0017  01A0               	clrf	__pbssBANK0& (0+127)
  2412  0018  01A1               	clrf	(__pbssBANK0+1)& (0+127)
  2413  0019  01A2               	clrf	(__pbssBANK0+2)& (0+127)
  2414  001A  01A3               	clrf	(__pbssBANK0+3)& (0+127)
  2415  001B  01A4               	clrf	(__pbssBANK0+4)& (0+127)
  2416  001C  01A5               	clrf	(__pbssBANK0+5)& (0+127)
  2417  001D  01A6               	clrf	(__pbssBANK0+6)& (0+127)
  2418  001E  01A7               	clrf	(__pbssBANK0+7)& (0+127)
  2419  001F                     end_of_initialization:	
  2420                           ;End of C runtime variable initialization code
  2421                           
  2422  001F                     __end_of__initialization:
  2423  001F  107E               	bcf	int$flags,0	;clear compiler interrupt flag (level 1)
  2424  0020  0020               	movlb	0
  2425  0021  3180  2823         	ljmp	_main	;jump to C main() function
  2426                           
  2427                           	psect	bssCOMMON
  2428  0078                     __pbssCOMMON:
  2429  0078                     TMR0_ISR@CountCallBack:
  2430  0078                     	ds	2
  2431  007A                     _TMR0_InterruptHandler:
  2432  007A                     	ds	2
  2433                           
  2434                           	psect	bssBANK0
  2435  0020                     __pbssBANK0:
  2436  0020                     _micros:
  2437  0020                     	ds	4
  2438  0024                     _millis:
  2439  0024                     	ds	4
  2440                           
  2441                           	psect	cstackCOMMON
  2442  0070                     __pcstackCOMMON:
  2443  0070                     ?_TMR0_Initialize:
  2444  0070                     ?_PIC16_Init:	
  2445                           ; 1 bytes @ 0x0
  2446                           
  2447  0070                     ??_PIC16_Init:	
  2448                           ; 1 bytes @ 0x0
  2449                           
  2450  0070                     ?_SYSTEM_Initialize:	
  2451                           ; 1 bytes @ 0x0
  2452                           
  2453  0070                     ??_SYSTEM_Initialize:	
  2454                           ; 1 bytes @ 0x0
  2455                           
  2456  0070                     ?_TMR0_ISR:	
  2457                           ; 1 bytes @ 0x0
  2458                           
  2459  0070                     ??_TMR0_ISR:	
  2460                           ; 1 bytes @ 0x0
  2461                           
  2462  0070                     ?_PMD_Initialize:	
  2463                           ; 1 bytes @ 0x0
  2464                           
  2465  0070                     ??_PMD_Initialize:	
  2466                           ; 1 bytes @ 0x0
  2467                           
  2468  0070                     ?_OSCILLATOR_Initialize:	
  2469                           ; 1 bytes @ 0x0
  2470                           
  2471  0070                     ??_OSCILLATOR_Initialize:	
  2472                           ; 1 bytes @ 0x0
  2473                           
  2474  0070                     ?_WDT_Initialize:	
  2475                           ; 1 bytes @ 0x0
  2476                           
  2477  0070                     ??_WDT_Initialize:	
  2478                           ; 1 bytes @ 0x0
  2479                           
  2480  0070                     ?_TMR0_SetInterruptHandler:	
  2481                           ; 1 bytes @ 0x0
  2482                           
  2483  0070                     ?_TMR0_DefaultInterruptHandler:	
  2484                           ; 1 bytes @ 0x0
  2485                           
  2486  0070                     ??_TMR0_DefaultInterruptHandler:	
  2487                           ; 1 bytes @ 0x0
  2488                           
  2489  0070                     ?_TMR0_CallBack:	
  2490                           ; 1 bytes @ 0x0
  2491                           
  2492  0070                     ??_TMR0_CallBack:	
  2493                           ; 1 bytes @ 0x0
  2494                           
  2495  0070                     ?_FR_Timer_Init:	
  2496                           ; 1 bytes @ 0x0
  2497                           
  2498  0070                     ?_FR_Timer_IncMillis:	
  2499                           ; 1 bytes @ 0x0
  2500                           
  2501  0070                     ??_FR_Timer_IncMillis:	
  2502                           ; 1 bytes @ 0x0
  2503                           
  2504  0070                     ?_FR_Timer_IncMicros:	
  2505                           ; 1 bytes @ 0x0
  2506                           
  2507  0070                     ??_FR_Timer_IncMicros:	
  2508                           ; 1 bytes @ 0x0
  2509                           
  2510  0070                     ?_InterruptManager:	
  2511                           ; 1 bytes @ 0x0
  2512                           
  2513  0070                     ??_InterruptManager:	
  2514                           ; 1 bytes @ 0x0
  2515                           
  2516  0070                     ?_main:	
  2517                           ; 1 bytes @ 0x0
  2518                           
  2519  0070                     ?_FR_Timer_GetMillis:	
  2520                           ; 2 bytes @ 0x0
  2521                           
  2522  0070                     TMR0_SetInterruptHandler@InterruptHandler:	
  2523                           ; 4 bytes @ 0x0
  2524                           
  2525                           
  2526                           ; 2 bytes @ 0x0
  2527  0070                     	ds	2
  2528  0072                     ??_TMR0_Initialize:
  2529  0072                     ??_TMR0_SetInterruptHandler:	
  2530                           ; 1 bytes @ 0x2
  2531                           
  2532  0072                     ??_FR_Timer_Init:	
  2533                           ; 1 bytes @ 0x2
  2534                           
  2535                           
  2536                           ; 1 bytes @ 0x2
  2537  0072                     	ds	2
  2538  0074                     ??_FR_Timer_GetMillis:
  2539  0074                     ??_main:	
  2540                           ; 1 bytes @ 0x4
  2541                           
  2542                           
  2543                           ; 1 bytes @ 0x4
  2544  0074                     	ds	4
  2545                           
  2546                           	psect	cstackBANK0
  2547  0028                     __pcstackBANK0:
  2548  0028                     main@prevMilli:
  2549                           
  2550                           ; 4 bytes @ 0x0
  2551  0028                     	ds	4
  2552  002C                     main@currMilli:
  2553                           
  2554                           ; 4 bytes @ 0x4
  2555  002C                     	ds	4
  2556                           
  2557                           	psect	maintext
  2558  0023                     __pmaintext:	
  2559 ;;
  2560 ;;Main: autosize = 0, tempsize = 4, incstack = 0, save=0
  2561 ;;
  2562 ;; *************** function _main *****************
  2563 ;; Defined at:
  2564 ;;		line 71 in file "FR_Timer.c"
  2565 ;; Parameters:    Size  Location     Type
  2566 ;;		None
  2567 ;; Auto vars:     Size  Location     Type
  2568 ;;  currMilli       4    4[BANK0 ] unsigned long 
  2569 ;;  prevMilli       4    0[BANK0 ] unsigned long 
  2570 ;; Return value:  Size  Location     Type
  2571 ;;                  2   86[None  ] int 
  2572 ;; Registers used:
  2573 ;;		wreg, status,2, status,0, pclath, cstack
  2574 ;; Tracked objects:
  2575 ;;		On entry : B1F/0
  2576 ;;		On exit  : 0/0
  2577 ;;		Unchanged: 0/0
  2578 ;; Data sizes:     COMMON   BANK0   BANK1   BANK2   BANK3   BANK4   BANK5   BANK6   BANK7   BANK8   BANK9  BANK10  BANK1
      +1  BANK12
  2579 ;;      Params:         0       0       0       0       0       0       0       0       0       0       0       0       
      +0       0
  2580 ;;      Locals:         0       8       0       0       0       0       0       0       0       0       0       0       
      +0       0
  2581 ;;      Temps:          4       0       0       0       0       0       0       0       0       0       0       0       
      +0       0
  2582 ;;      Totals:         4       8       0       0       0       0       0       0       0       0       0       0       
      +0       0
  2583 ;;Total ram usage:       12 bytes
  2584 ;; Hardware stack levels required when called: 7
  2585 ;; This function calls:
  2586 ;;		_FR_Timer_GetMillis
  2587 ;;		_FR_Timer_Init
  2588 ;;		_PIC16_Init
  2589 ;; This function is called by:
  2590 ;;		Startup code after reset
  2591 ;; This function uses a non-reentrant model
  2592 ;;
  2593                           
  2594  0023                     _main:	
  2595                           ;psect for function _main
  2596                           
  2597  0023                     l1233:	
  2598                           ;incstack = 0
  2599                           ; Regs used in _main: [wreg+status,2+status,0+pclath+cstack]
  2600                           
  2601                           
  2602                           ;FR_Timer.c: 76:     unsigned long prevMilli = 0;
  2603  0023  3000               	movlw	0
  2604  0024  0020               	movlb	0	; select bank0
  2605  0025  00AB               	movwf	main@prevMilli+3
  2606  0026  3000               	movlw	0
  2607  0027  00AA               	movwf	main@prevMilli+2
  2608  0028  3000               	movlw	0
  2609  0029  00A9               	movwf	main@prevMilli+1
  2610  002A  3000               	movlw	0
  2611  002B  00A8               	movwf	main@prevMilli
  2612  002C                     l1235:
  2613                           
  2614                           ;FR_Timer.c: 79:     PIC16_Init();
  2615  002C  3181  2101  3180   	fcall	_PIC16_Init
  2616  002F                     l1237:
  2617                           
  2618                           ;FR_Timer.c: 80:     FR_Timer_Init();
  2619  002F  3181  21BE  3180   	fcall	_FR_Timer_Init
  2620  0032                     l1239:
  2621                           
  2622                           ;FR_Timer.c: 82:     TRISCbits.TRISC0 = 0;
  2623  0032  0021               	movlb	1	; select bank1
  2624  0033  100E               	bcf	14,0	;volatile
  2625  0034                     l1241:
  2626                           
  2627                           ;FR_Timer.c: 83:     LATCbits.LATC0 = 0;
  2628  0034  0022               	movlb	2	; select bank2
  2629  0035  100E               	bcf	14,0	;volatile
  2630  0036                     l1243:
  2631                           
  2632                           ;FR_Timer.c: 86:         currMilli = FR_Timer_GetMillis();
  2633  0036  3181  2197  3180   	fcall	_FR_Timer_GetMillis
  2634  0039  0873               	movf	?_FR_Timer_GetMillis+3,w
  2635  003A  0020               	movlb	0	; select bank0
  2636  003B  00AF               	movwf	main@currMilli+3
  2637  003C  0872               	movf	?_FR_Timer_GetMillis+2,w
  2638  003D  00AE               	movwf	main@currMilli+2
  2639  003E  0871               	movf	?_FR_Timer_GetMillis+1,w
  2640  003F  00AD               	movwf	main@currMilli+1
  2641  0040  0870               	movf	?_FR_Timer_GetMillis,w
  2642  0041  00AC               	movwf	main@currMilli
  2643  0042                     l1245:
  2644                           
  2645                           ;FR_Timer.c: 89:         if((unsigned long)(currMilli - prevMilli) >= 500) {
  2646  0042  0828               	movf	main@prevMilli,w
  2647  0043  022C               	subwf	main@currMilli,w
  2648  0044  00F4               	movwf	??_main
  2649  0045  0829               	movf	main@prevMilli+1,w
  2650  0046  3B2D               	subwfb	main@currMilli+1,w
  2651  0047  00F5               	movwf	??_main+1
  2652  0048  082A               	movf	main@prevMilli+2,w
  2653  0049  3B2E               	subwfb	main@currMilli+2,w
  2654  004A  00F6               	movwf	??_main+2
  2655  004B  082B               	movf	main@prevMilli+3,w
  2656  004C  3B2F               	subwfb	main@currMilli+3,w
  2657  004D  00F7               	movwf	??_main+3
  2658  004E  0877               	movf	??_main+3,w
  2659  004F  1D03               	btfss	3,2
  2660  0050  285C               	goto	u90
  2661  0051  0876               	movf	??_main+2,w
  2662  0052  1D03               	btfss	3,2
  2663  0053  285C               	goto	u90
  2664  0054  30F4               	movlw	244
  2665  0055  0274               	subwf	??_main,w
  2666  0056  3001               	movlw	1
  2667  0057  3B75               	subwfb	??_main+1,w
  2668  0058  1C03               	btfss	3,0
  2669  0059  285B               	goto	u91
  2670  005A  285C               	goto	u90
  2671  005B                     u91:
  2672  005B  2836               	goto	l1243
  2673  005C                     u90:
  2674  005C                     l1247:
  2675                           
  2676                           ;FR_Timer.c: 90:             LATCbits.LATC0 ^= 1;
  2677  005C  0022               	movlb	2	; select bank2
  2678  005D  080E               	movf	14,w	;volatile
  2679  005E  3901               	andlw	1
  2680  005F  00F4               	movwf	??_main
  2681  0060  3001               	movlw	1
  2682  0061  06F4               	xorwf	??_main,f
  2683  0062  080E               	movf	14,w	;volatile
  2684  0063  0674               	xorwf	??_main,w
  2685  0064  39FE               	andlw	-2
  2686  0065  0674               	xorwf	??_main,w
  2687  0066  008E               	movwf	14	;volatile
  2688  0067                     l1249:
  2689                           
  2690                           ;FR_Timer.c: 91:             prevMilli = currMilli;
  2691  0067  0020               	movlb	0	; select bank0
  2692  0068  082F               	movf	main@currMilli+3,w
  2693  0069  00AB               	movwf	main@prevMilli+3
  2694  006A  082E               	movf	main@currMilli+2,w
  2695  006B  00AA               	movwf	main@prevMilli+2
  2696  006C  082D               	movf	main@currMilli+1,w
  2697  006D  00A9               	movwf	main@prevMilli+1
  2698  006E  082C               	movf	main@currMilli,w
  2699  006F  00A8               	movwf	main@prevMilli
  2700  0070  2836               	goto	l1243
  2701  0071  3180  2810         	ljmp	start
  2702  0073                     __end_of_main:
  2703                           
  2704                           	psect	text1
  2705  0101                     __ptext1:	
  2706 ;; *************** function _PIC16_Init *****************
  2707 ;; Defined at:
  2708 ;;		line 16 in file "PIC16Xpress_DevBoard.c"
  2709 ;; Parameters:    Size  Location     Type
  2710 ;;		None
  2711 ;; Auto vars:     Size  Location     Type
  2712 ;;		None
  2713 ;; Return value:  Size  Location     Type
  2714 ;;                  1    wreg      void 
  2715 ;; Registers used:
  2716 ;;		wreg, status,2, status,0, pclath, cstack
  2717 ;; Tracked objects:
  2718 ;;		On entry : 0/0
  2719 ;;		On exit  : 0/0
  2720 ;;		Unchanged: 0/0
  2721 ;; Data sizes:     COMMON   BANK0   BANK1   BANK2   BANK3   BANK4   BANK5   BANK6   BANK7   BANK8   BANK9  BANK10  BANK1
      +1  BANK12
  2722 ;;      Params:         0       0       0       0       0       0       0       0       0       0       0       0       
      +0       0
  2723 ;;      Locals:         0       0       0       0       0       0       0       0       0       0       0       0       
      +0       0
  2724 ;;      Temps:          0       0       0       0       0       0       0       0       0       0       0       0       
      +0       0
  2725 ;;      Totals:         0       0       0       0       0       0       0       0       0       0       0       0       
      +0       0
  2726 ;;Total ram usage:        0 bytes
  2727 ;; Hardware stack levels used: 1
  2728 ;; Hardware stack levels required when called: 6
  2729 ;; This function calls:
  2730 ;;		_SYSTEM_Initialize
  2731 ;; This function is called by:
  2732 ;;		_main
  2733 ;; This function uses a non-reentrant model
  2734 ;;
  2735                           
  2736  0101                     _PIC16_Init:	
  2737                           ;psect for function _PIC16_Init
  2738                           
  2739  0101                     l1149:	
  2740                           ;incstack = 0
  2741                           ; Regs used in _PIC16_Init: [wreg+status,2+status,0+pclath+cstack]
  2742                           
  2743                           
  2744                           ;PIC16Xpress_DevBoard.c: 18:     SYSTEM_Initialize();
  2745  0101  3181  218D  3181   	fcall	_SYSTEM_Initialize
  2746  0104                     l1151:
  2747                           
  2748                           ;PIC16Xpress_DevBoard.c: 21:     PIE0 = 0x00;
  2749  0104  0021               	movlb	1	; select bank1
  2750  0105  0190               	clrf	16	;volatile
  2751  0106                     l1153:
  2752                           
  2753                           ;PIC16Xpress_DevBoard.c: 22:     PIE1 = 0x00;
  2754  0106  0191               	clrf	17	;volatile
  2755  0107                     l1155:
  2756                           
  2757                           ;PIC16Xpress_DevBoard.c: 23:     PIE2 = 0x00;
  2758  0107  0192               	clrf	18	;volatile
  2759  0108                     l1157:
  2760                           
  2761                           ;PIC16Xpress_DevBoard.c: 24:     PIE3 = 0x00;
  2762  0108  0193               	clrf	19	;volatile
  2763  0109                     l1159:
  2764                           
  2765                           ;PIC16Xpress_DevBoard.c: 25:     PIE4 = 0x00;
  2766  0109  0194               	clrf	20	;volatile
  2767  010A                     l1161:
  2768                           
  2769                           ;PIC16Xpress_DevBoard.c: 28:     LATA = 0x00;
  2770  010A  0022               	movlb	2	; select bank2
  2771  010B  018C               	clrf	12	;volatile
  2772  010C                     l1163:
  2773                           
  2774                           ;PIC16Xpress_DevBoard.c: 29:     LATB = 0x00;
  2775  010C  018D               	clrf	13	;volatile
  2776  010D                     l1165:
  2777                           
  2778                           ;PIC16Xpress_DevBoard.c: 30:     LATC = 0x00;
  2779  010D  018E               	clrf	14	;volatile
  2780  010E                     l1167:
  2781                           
  2782                           ;PIC16Xpress_DevBoard.c: 32:     TRISA = 0x37;
  2783  010E  3037               	movlw	55
  2784  010F  0021               	movlb	1	; select bank1
  2785  0110  008C               	movwf	12	;volatile
  2786  0111                     l1169:
  2787                           
  2788                           ;PIC16Xpress_DevBoard.c: 33:     TRISB = 0xF0;
  2789  0111  30F0               	movlw	240
  2790  0112  008D               	movwf	13	;volatile
  2791  0113                     l1171:
  2792                           
  2793                           ;PIC16Xpress_DevBoard.c: 34:     TRISC = 0xFF;
  2794  0113  30FF               	movlw	255
  2795  0114  008E               	movwf	14	;volatile
  2796  0115                     l1173:
  2797                           
  2798                           ;PIC16Xpress_DevBoard.c: 36:     ANSELC = 0xFF;
  2799  0115  30FF               	movlw	255
  2800  0116  0023               	movlb	3	; select bank3
  2801  0117  008E               	movwf	14	;volatile
  2802  0118                     l1175:
  2803                           
  2804                           ;PIC16Xpress_DevBoard.c: 37:     ANSELB = 0xF0;
  2805  0118  30F0               	movlw	240
  2806  0119  008D               	movwf	13	;volatile
  2807  011A                     l1177:
  2808                           
  2809                           ;PIC16Xpress_DevBoard.c: 38:     ANSELA = 0x37;
  2810  011A  3037               	movlw	55
  2811  011B  008C               	movwf	12	;volatile
  2812  011C                     l1179:
  2813                           
  2814                           ;PIC16Xpress_DevBoard.c: 40:     WPUB = 0x00;
  2815  011C  0024               	movlb	4	; select bank4
  2816  011D  018D               	clrf	13	;volatile
  2817  011E                     l1181:
  2818                           
  2819                           ;PIC16Xpress_DevBoard.c: 41:     WPUA = 0x00;
  2820  011E  018C               	clrf	12	;volatile
  2821  011F                     l1183:
  2822                           
  2823                           ;PIC16Xpress_DevBoard.c: 42:     WPUC = 0x00;
  2824  011F  018E               	clrf	14	;volatile
  2825  0120                     l1185:
  2826                           
  2827                           ;PIC16Xpress_DevBoard.c: 44:     ODCONA = 0x00;
  2828  0120  0025               	movlb	5	; select bank5
  2829  0121  018C               	clrf	12	;volatile
  2830  0122                     l1187:
  2831                           
  2832                           ;PIC16Xpress_DevBoard.c: 45:     ODCONB = 0x00;
  2833  0122  018D               	clrf	13	;volatile
  2834  0123                     l1189:
  2835                           
  2836                           ;PIC16Xpress_DevBoard.c: 46:     ODCONC = 0x00;
  2837  0123  018E               	clrf	14	;volatile
  2838  0124                     l1191:
  2839                           
  2840                           ;PIC16Xpress_DevBoard.c: 48:     SLRCONA = 0x37;
  2841  0124  3037               	movlw	55
  2842  0125  0026               	movlb	6	; select bank6
  2843  0126  008C               	movwf	12	;volatile
  2844  0127                     l1193:
  2845                           
  2846                           ;PIC16Xpress_DevBoard.c: 49:     SLRCONB = 0xF0;
  2847  0127  30F0               	movlw	240
  2848  0128  008D               	movwf	13	;volatile
  2849  0129                     l1195:
  2850                           
  2851                           ;PIC16Xpress_DevBoard.c: 50:     SLRCONC = 0xFF;
  2852  0129  30FF               	movlw	255
  2853  012A  008E               	movwf	14	;volatile
  2854  012B                     l1197:
  2855                           
  2856                           ;PIC16Xpress_DevBoard.c: 52:     INLVLA = 0x3F;
  2857  012B  303F               	movlw	63
  2858  012C  0027               	movlb	7	; select bank7
  2859  012D  008C               	movwf	12	;volatile
  2860  012E                     l1199:
  2861                           
  2862                           ;PIC16Xpress_DevBoard.c: 53:     INLVLB = 0xF0;
  2863  012E  30F0               	movlw	240
  2864  012F  008D               	movwf	13	;volatile
  2865  0130                     l1201:
  2866                           
  2867                           ;PIC16Xpress_DevBoard.c: 54:     INLVLC = 0xFF;
  2868  0130  30FF               	movlw	255
  2869  0131  008E               	movwf	14	;volatile
  2870  0132                     l1203:
  2871                           
  2872                           ;PIC16Xpress_DevBoard.c: 57:     PIR0 = 0x00;
  2873  0132  0020               	movlb	0	; select bank0
  2874  0133  0190               	clrf	16	;volatile
  2875  0134                     l1205:
  2876                           
  2877                           ;PIC16Xpress_DevBoard.c: 58:     PIR1 = 0x00;
  2878  0134  0191               	clrf	17	;volatile
  2879  0135                     l1207:
  2880                           
  2881                           ;PIC16Xpress_DevBoard.c: 59:     PIR2 = 0x00;
  2882  0135  0192               	clrf	18	;volatile
  2883  0136                     l1209:
  2884                           
  2885                           ;PIC16Xpress_DevBoard.c: 60:     PIR3 = 0x00;
  2886  0136  0193               	clrf	19	;volatile
  2887  0137                     l1211:
  2888                           
  2889                           ;PIC16Xpress_DevBoard.c: 61:     PIR4 = 0x00;
  2890  0137  0194               	clrf	20	;volatile
  2891  0138                     l1213:
  2892                           
  2893                           ;PIC16Xpress_DevBoard.c: 63:     INTCONbits.GIE = 1;
  2894  0138  178B               	bsf	11,7	;volatile
  2895  0139                     l167:
  2896  0139  0008               	return
  2897  013A                     __end_of_PIC16_Init:
  2898                           
  2899                           	psect	text2
  2900  018D                     __ptext2:	
  2901 ;; *************** function _SYSTEM_Initialize *****************
  2902 ;; Defined at:
  2903 ;;		line 11 in file "mcc.c"
  2904 ;; Parameters:    Size  Location     Type
  2905 ;;		None
  2906 ;; Auto vars:     Size  Location     Type
  2907 ;;		None
  2908 ;; Return value:  Size  Location     Type
  2909 ;;                  1    wreg      void 
  2910 ;; Registers used:
  2911 ;;		wreg, status,2, status,0, pclath, cstack
  2912 ;; Tracked objects:
  2913 ;;		On entry : 0/0
  2914 ;;		On exit  : 0/0
  2915 ;;		Unchanged: 0/0
  2916 ;; Data sizes:     COMMON   BANK0   BANK1   BANK2   BANK3   BANK4   BANK5   BANK6   BANK7   BANK8   BANK9  BANK10  BANK1
      +1  BANK12
  2917 ;;      Params:         0       0       0       0       0       0       0       0       0       0       0       0       
      +0       0
  2918 ;;      Locals:         0       0       0       0       0       0       0       0       0       0       0       0       
      +0       0
  2919 ;;      Temps:          0       0       0       0       0       0       0       0       0       0       0       0       
      +0       0
  2920 ;;      Totals:         0       0       0       0       0       0       0       0       0       0       0       0       
      +0       0
  2921 ;;Total ram usage:        0 bytes
  2922 ;; Hardware stack levels used: 1
  2923 ;; Hardware stack levels required when called: 5
  2924 ;; This function calls:
  2925 ;;		_OSCILLATOR_Initialize
  2926 ;;		_PMD_Initialize
  2927 ;;		_WDT_Initialize
  2928 ;; This function is called by:
  2929 ;;		_PIC16_Init
  2930 ;; This function uses a non-reentrant model
  2931 ;;
  2932                           
  2933  018D                     _SYSTEM_Initialize:	
  2934                           ;psect for function _SYSTEM_Initialize
  2935                           
  2936  018D                     l1133:	
  2937                           ;incstack = 0
  2938                           ; Regs used in _SYSTEM_Initialize: [wreg+status,2+status,0+pclath+cstack]
  2939                           
  2940                           
  2941                           ;mcc.c: 13:     PMD_Initialize();
  2942  018D  3181  2175  3181   	fcall	_PMD_Initialize
  2943                           
  2944                           ;mcc.c: 14:     OSCILLATOR_Initialize();
  2945  0190  3181  2181  3181   	fcall	_OSCILLATOR_Initialize
  2946                           
  2947                           ;mcc.c: 15:     WDT_Initialize();
  2948  0193  3181  21BA  3181   	fcall	_WDT_Initialize
  2949  0196                     l208:
  2950  0196  0008               	return
  2951  0197                     __end_of_SYSTEM_Initialize:
  2952                           
  2953                           	psect	text3
  2954  01BA                     __ptext3:	
  2955 ;; *************** function _WDT_Initialize *****************
  2956 ;; Defined at:
  2957 ;;		line 34 in file "mcc.c"
  2958 ;; Parameters:    Size  Location     Type
  2959 ;;		None
  2960 ;; Auto vars:     Size  Location     Type
  2961 ;;		None
  2962 ;; Return value:  Size  Location     Type
  2963 ;;                  1    wreg      void 
  2964 ;; Registers used:
  2965 ;;		wreg
  2966 ;; Tracked objects:
  2967 ;;		On entry : 0/0
  2968 ;;		On exit  : 0/0
  2969 ;;		Unchanged: 0/0
  2970 ;; Data sizes:     COMMON   BANK0   BANK1   BANK2   BANK3   BANK4   BANK5   BANK6   BANK7   BANK8   BANK9  BANK10  BANK1
      +1  BANK12
  2971 ;;      Params:         0       0       0       0       0       0       0       0       0       0       0       0       
      +0       0
  2972 ;;      Locals:         0       0       0       0       0       0       0       0       0       0       0       0       
      +0       0
  2973 ;;      Temps:          0       0       0       0       0       0       0       0       0       0       0       0       
      +0       0
  2974 ;;      Totals:         0       0       0       0       0       0       0       0       0       0       0       0       
      +0       0
  2975 ;;Total ram usage:        0 bytes
  2976 ;; Hardware stack levels used: 1
  2977 ;; Hardware stack levels required when called: 4
  2978 ;; This function calls:
  2979 ;;		Nothing
  2980 ;; This function is called by:
  2981 ;;		_SYSTEM_Initialize
  2982 ;; This function uses a non-reentrant model
  2983 ;;
  2984                           
  2985  01BA                     _WDT_Initialize:	
  2986                           ;psect for function _WDT_Initialize
  2987                           
  2988  01BA                     l1117:	
  2989                           ;incstack = 0
  2990                           ; Regs used in _WDT_Initialize: [wreg]
  2991                           
  2992                           
  2993                           ;mcc.c: 37:     WDTCON = 0x16;
  2994  01BA  3016               	movlw	22
  2995  01BB  0021               	movlb	1	; select bank1
  2996  01BC  0097               	movwf	23	;volatile
  2997  01BD                     l217:
  2998  01BD  0008               	return
  2999  01BE                     __end_of_WDT_Initialize:
  3000                           
  3001                           	psect	text4
  3002  0175                     __ptext4:	
  3003 ;; *************** function _PMD_Initialize *****************
  3004 ;; Defined at:
  3005 ;;		line 40 in file "mcc.c"
  3006 ;; Parameters:    Size  Location     Type
  3007 ;;		None
  3008 ;; Auto vars:     Size  Location     Type
  3009 ;;		None
  3010 ;; Return value:  Size  Location     Type
  3011 ;;                  1    wreg      void 
  3012 ;; Registers used:
  3013 ;;		wreg, status,2
  3014 ;; Tracked objects:
  3015 ;;		On entry : 0/0
  3016 ;;		On exit  : 0/0
  3017 ;;		Unchanged: 0/0
  3018 ;; Data sizes:     COMMON   BANK0   BANK1   BANK2   BANK3   BANK4   BANK5   BANK6   BANK7   BANK8   BANK9  BANK10  BANK1
      +1  BANK12
  3019 ;;      Params:         0       0       0       0       0       0       0       0       0       0       0       0       
      +0       0
  3020 ;;      Locals:         0       0       0       0       0       0       0       0       0       0       0       0       
      +0       0
  3021 ;;      Temps:          0       0       0       0       0       0       0       0       0       0       0       0       
      +0       0
  3022 ;;      Totals:         0       0       0       0       0       0       0       0       0       0       0       0       
      +0       0
  3023 ;;Total ram usage:        0 bytes
  3024 ;; Hardware stack levels used: 1
  3025 ;; Hardware stack levels required when called: 4
  3026 ;; This function calls:
  3027 ;;		Nothing
  3028 ;; This function is called by:
  3029 ;;		_SYSTEM_Initialize
  3030 ;; This function uses a non-reentrant model
  3031 ;;
  3032                           
  3033  0175                     _PMD_Initialize:	
  3034                           ;psect for function _PMD_Initialize
  3035                           
  3036  0175                     l1101:	
  3037                           ;incstack = 0
  3038                           ; Regs used in _PMD_Initialize: [wreg+status,2]
  3039                           
  3040                           
  3041                           ;mcc.c: 43:     PMD0 = 0x00;
  3042  0175  0032               	movlb	18	; select bank18
  3043  0176  0191               	clrf	17	;volatile
  3044  0177                     l1103:
  3045                           
  3046                           ;mcc.c: 45:     PMD1 = 0x54;
  3047  0177  3054               	movlw	84
  3048  0178  0092               	movwf	18	;volatile
  3049  0179                     l1105:
  3050                           
  3051                           ;mcc.c: 47:     PMD2 = 0x66;
  3052  0179  3066               	movlw	102
  3053  017A  0093               	movwf	19	;volatile
  3054  017B                     l1107:
  3055                           
  3056                           ;mcc.c: 49:     PMD3 = 0xC8;
  3057  017B  30C8               	movlw	200
  3058  017C  0094               	movwf	20	;volatile
  3059  017D                     l1109:
  3060                           
  3061                           ;mcc.c: 51:     PMD4 = 0x00;
  3062  017D  0195               	clrf	21	;volatile
  3063                           
  3064                           ;mcc.c: 53:     PMD5 = 0x1F;
  3065  017E  301F               	movlw	31
  3066  017F  0096               	movwf	22	;volatile
  3067  0180                     l220:
  3068  0180  0008               	return
  3069  0181                     __end_of_PMD_Initialize:
  3070                           
  3071                           	psect	text5
  3072  0181                     __ptext5:	
  3073 ;; *************** function _OSCILLATOR_Initialize *****************
  3074 ;; Defined at:
  3075 ;;		line 18 in file "mcc.c"
  3076 ;; Parameters:    Size  Location     Type
  3077 ;;		None
  3078 ;; Auto vars:     Size  Location     Type
  3079 ;;		None
  3080 ;; Return value:  Size  Location     Type
  3081 ;;                  1    wreg      void 
  3082 ;; Registers used:
  3083 ;;		wreg, status,2
  3084 ;; Tracked objects:
  3085 ;;		On entry : 0/0
  3086 ;;		On exit  : 0/0
  3087 ;;		Unchanged: 0/0
  3088 ;; Data sizes:     COMMON   BANK0   BANK1   BANK2   BANK3   BANK4   BANK5   BANK6   BANK7   BANK8   BANK9  BANK10  BANK1
      +1  BANK12
  3089 ;;      Params:         0       0       0       0       0       0       0       0       0       0       0       0       
      +0       0
  3090 ;;      Locals:         0       0       0       0       0       0       0       0       0       0       0       0       
      +0       0
  3091 ;;      Temps:          0       0       0       0       0       0       0       0       0       0       0       0       
      +0       0
  3092 ;;      Totals:         0       0       0       0       0       0       0       0       0       0       0       0       
      +0       0
  3093 ;;Total ram usage:        0 bytes
  3094 ;; Hardware stack levels used: 1
  3095 ;; Hardware stack levels required when called: 4
  3096 ;; This function calls:
  3097 ;;		Nothing
  3098 ;; This function is called by:
  3099 ;;		_SYSTEM_Initialize
  3100 ;; This function uses a non-reentrant model
  3101 ;;
  3102                           
  3103  0181                     _OSCILLATOR_Initialize:	
  3104                           ;psect for function _OSCILLATOR_Initialize
  3105                           
  3106  0181                     l1111:	
  3107                           ;incstack = 0
  3108                           ; Regs used in _OSCILLATOR_Initialize: [wreg+status,2]
  3109                           
  3110                           
  3111                           ;mcc.c: 21:     OSCCON1 = 0x00;
  3112  0181  0032               	movlb	18	; select bank18
  3113  0182  0199               	clrf	25	;volatile
  3114                           
  3115                           ;mcc.c: 23:     OSCCON3 = 0x00;
  3116  0183  019B               	clrf	27	;volatile
  3117                           
  3118                           ;mcc.c: 25:     OSCEN = 0x00;
  3119  0184  019D               	clrf	29	;volatile
  3120  0185                     l1113:
  3121                           
  3122                           ;mcc.c: 27:     OSCFRQ = 0x04;
  3123  0185  3004               	movlw	4
  3124  0186  009F               	movwf	31	;volatile
  3125  0187                     l1115:
  3126                           
  3127                           ;mcc.c: 29:     OSCTUNE = 0x00;
  3128  0187  019E               	clrf	30	;volatile
  3129  0188                     l211:	
  3130                           ;mcc.c: 31:     while(PLLR == 0);
  3131                           
  3132  0188  1C1C               	btfss	28,0	;volatile
  3133  0189  298B               	goto	u61
  3134  018A  298C               	goto	u60
  3135  018B                     u61:
  3136  018B  2988               	goto	l211
  3137  018C                     u60:
  3138  018C                     l214:
  3139  018C  0008               	return
  3140  018D                     __end_of_OSCILLATOR_Initialize:
  3141                           
  3142                           	psect	text6
  3143  01BE                     __ptext6:	
  3144 ;; *************** function _FR_Timer_Init *****************
  3145 ;; Defined at:
  3146 ;;		line 35 in file "FR_Timer.c"
  3147 ;; Parameters:    Size  Location     Type
  3148 ;;		None
  3149 ;; Auto vars:     Size  Location     Type
  3150 ;;		None
  3151 ;; Return value:  Size  Location     Type
  3152 ;;                  1    wreg      void 
  3153 ;; Registers used:
  3154 ;;		wreg, status,2, status,0, pclath, cstack
  3155 ;; Tracked objects:
  3156 ;;		On entry : 0/0
  3157 ;;		On exit  : 0/0
  3158 ;;		Unchanged: 0/0
  3159 ;; Data sizes:     COMMON   BANK0   BANK1   BANK2   BANK3   BANK4   BANK5   BANK6   BANK7   BANK8   BANK9  BANK10  BANK1
      +1  BANK12
  3160 ;;      Params:         0       0       0       0       0       0       0       0       0       0       0       0       
      +0       0
  3161 ;;      Locals:         0       0       0       0       0       0       0       0       0       0       0       0       
      +0       0
  3162 ;;      Temps:          0       0       0       0       0       0       0       0       0       0       0       0       
      +0       0
  3163 ;;      Totals:         0       0       0       0       0       0       0       0       0       0       0       0       
      +0       0
  3164 ;;Total ram usage:        0 bytes
  3165 ;; Hardware stack levels used: 1
  3166 ;; Hardware stack levels required when called: 6
  3167 ;; This function calls:
  3168 ;;		_TMR0_Initialize
  3169 ;; This function is called by:
  3170 ;;		_main
  3171 ;; This function uses a non-reentrant model
  3172 ;;
  3173                           
  3174  01BE                     _FR_Timer_Init:	
  3175                           ;psect for function _FR_Timer_Init
  3176                           
  3177  01BE                     l1141:	
  3178                           ;incstack = 0
  3179                           ; Regs used in _FR_Timer_Init: [wreg+status,2+status,0+pclath+cstack]
  3180                           
  3181                           
  3182                           ;FR_Timer.c: 36:     TMR0_Initialize();
  3183  01BE  3181  214F  3181   	fcall	_TMR0_Initialize
  3184  01C1                     l70:
  3185  01C1  0008               	return
  3186  01C2                     __end_of_FR_Timer_Init:
  3187                           
  3188                           	psect	text7
  3189  014F                     __ptext7:	
  3190 ;; *************** function _TMR0_Initialize *****************
  3191 ;; Defined at:
  3192 ;;		line 17 in file "tmr0.c"
  3193 ;; Parameters:    Size  Location     Type
  3194 ;;		None
  3195 ;; Auto vars:     Size  Location     Type
  3196 ;;		None
  3197 ;; Return value:  Size  Location     Type
  3198 ;;                  1    wreg      void 
  3199 ;; Registers used:
  3200 ;;		wreg, status,2, status,0, pclath, cstack
  3201 ;; Tracked objects:
  3202 ;;		On entry : 0/0
  3203 ;;		On exit  : 0/0
  3204 ;;		Unchanged: 0/0
  3205 ;; Data sizes:     COMMON   BANK0   BANK1   BANK2   BANK3   BANK4   BANK5   BANK6   BANK7   BANK8   BANK9  BANK10  BANK1
      +1  BANK12
  3206 ;;      Params:         0       0       0       0       0       0       0       0       0       0       0       0       
      +0       0
  3207 ;;      Locals:         0       0       0       0       0       0       0       0       0       0       0       0       
      +0       0
  3208 ;;      Temps:          0       0       0       0       0       0       0       0       0       0       0       0       
      +0       0
  3209 ;;      Totals:         0       0       0       0       0       0       0       0       0       0       0       0       
      +0       0
  3210 ;;Total ram usage:        0 bytes
  3211 ;; Hardware stack levels used: 1
  3212 ;; Hardware stack levels required when called: 5
  3213 ;; This function calls:
  3214 ;;		_TMR0_SetInterruptHandler
  3215 ;; This function is called by:
  3216 ;;		_FR_Timer_Init
  3217 ;; This function uses a non-reentrant model
  3218 ;;
  3219                           
  3220  014F                     _TMR0_Initialize:	
  3221                           ;psect for function _TMR0_Initialize
  3222                           
  3223  014F                     l1121:	
  3224                           ;incstack = 0
  3225                           ; Regs used in _TMR0_Initialize: [wreg+status,2+status,0+pclath+cstack]
  3226                           
  3227                           
  3228                           ;tmr0.c: 22:     T0CON1 = 0x42;
  3229  014F  3042               	movlw	66
  3230  0150  0020               	movlb	0	; select bank0
  3231  0151  0098               	movwf	24	;volatile
  3232                           
  3233                           ;tmr0.c: 25:     TMR0H = 0xF9;
  3234  0152  30F9               	movlw	249
  3235  0153  0096               	movwf	22	;volatile
  3236  0154                     l1123:
  3237                           
  3238                           ;tmr0.c: 28:     TMR0L = 0x00;
  3239  0154  0195               	clrf	21	;volatile
  3240  0155                     l1125:
  3241                           
  3242                           ;tmr0.c: 31:     PIR0bits.TMR0IF = 0;
  3243  0155  1290               	bcf	16,5	;volatile
  3244  0156                     l1127:
  3245                           
  3246                           ;tmr0.c: 34:     PIE0bits.TMR0IE = 1;
  3247  0156  0021               	movlb	1	; select bank1
  3248  0157  1690               	bsf	16,5	;volatile
  3249  0158                     l1129:
  3250                           
  3251                           ;tmr0.c: 37:     TMR0_SetInterruptHandler(TMR0_DefaultInterruptHandler);
  3252  0158  30C2               	movlw	low _TMR0_DefaultInterruptHandler
  3253  0159  00F0               	movwf	TMR0_SetInterruptHandler@InterruptHandler
  3254  015A  3001               	movlw	high _TMR0_DefaultInterruptHandler
  3255  015B  00F1               	movwf	TMR0_SetInterruptHandler@InterruptHandler+1
  3256  015C  3181  21B5  3181   	fcall	_TMR0_SetInterruptHandler
  3257  015F                     l1131:
  3258                           
  3259                           ;tmr0.c: 40:     T0CON0 = 0x80;
  3260  015F  3080               	movlw	128
  3261  0160  0020               	movlb	0	; select bank0
  3262  0161  0097               	movwf	23	;volatile
  3263  0162                     l249:
  3264  0162  0008               	return
  3265  0163                     __end_of_TMR0_Initialize:
  3266                           
  3267                           	psect	text8
  3268  01B5                     __ptext8:	
  3269 ;; *************** function _TMR0_SetInterruptHandler *****************
  3270 ;; Defined at:
  3271 ;;		line 123 in file "tmr0.c"
  3272 ;; Parameters:    Size  Location     Type
  3273 ;;  InterruptHan    2    0[COMMON] PTR FTN()void 
  3274 ;;		 -> TMR0_DefaultInterruptHandler(1), 
  3275 ;; Auto vars:     Size  Location     Type
  3276 ;;		None
  3277 ;; Return value:  Size  Location     Type
  3278 ;;                  1    wreg      void 
  3279 ;; Registers used:
  3280 ;;		wreg
  3281 ;; Tracked objects:
  3282 ;;		On entry : 0/0
  3283 ;;		On exit  : 0/0
  3284 ;;		Unchanged: 0/0
  3285 ;; Data sizes:     COMMON   BANK0   BANK1   BANK2   BANK3   BANK4   BANK5   BANK6   BANK7   BANK8   BANK9  BANK10  BANK1
      +1  BANK12
  3286 ;;      Params:         2       0       0       0       0       0       0       0       0       0       0       0       
      +0       0
  3287 ;;      Locals:         0       0       0       0       0       0       0       0       0       0       0       0       
      +0       0
  3288 ;;      Temps:          0       0       0       0       0       0       0       0       0       0       0       0       
      +0       0
  3289 ;;      Totals:         2       0       0       0       0       0       0       0       0       0       0       0       
      +0       0
  3290 ;;Total ram usage:        2 bytes
  3291 ;; Hardware stack levels used: 1
  3292 ;; Hardware stack levels required when called: 4
  3293 ;; This function calls:
  3294 ;;		Nothing
  3295 ;; This function is called by:
  3296 ;;		_TMR0_Initialize
  3297 ;; This function uses a non-reentrant model
  3298 ;;
  3299                           
  3300  01B5                     _TMR0_SetInterruptHandler:	
  3301                           ;psect for function _TMR0_SetInterruptHandler
  3302                           
  3303  01B5                     l1119:	
  3304                           ;incstack = 0
  3305                           ; Regs used in _TMR0_SetInterruptHandler: [wreg]
  3306                           
  3307                           
  3308                           ;tmr0.c: 124:     TMR0_InterruptHandler = InterruptHandler;
  3309  01B5  0871               	movf	TMR0_SetInterruptHandler@InterruptHandler+1,w
  3310  01B6  00FB               	movwf	_TMR0_InterruptHandler+1
  3311  01B7  0870               	movf	TMR0_SetInterruptHandler@InterruptHandler,w
  3312  01B8  00FA               	movwf	_TMR0_InterruptHandler
  3313  01B9                     l277:
  3314  01B9  0008               	return
  3315  01BA                     __end_of_TMR0_SetInterruptHandler:
  3316                           
  3317                           	psect	text9
  3318  0197                     __ptext9:	
  3319 ;; *************** function _FR_Timer_GetMillis *****************
  3320 ;; Defined at:
  3321 ;;		line 42 in file "FR_Timer.c"
  3322 ;; Parameters:    Size  Location     Type
  3323 ;;		None
  3324 ;; Auto vars:     Size  Location     Type
  3325 ;;		None
  3326 ;; Return value:  Size  Location     Type
  3327 ;;                  4    0[COMMON] unsigned long 
  3328 ;; Registers used:
  3329 ;;		wreg
  3330 ;; Tracked objects:
  3331 ;;		On entry : 0/0
  3332 ;;		On exit  : 0/0
  3333 ;;		Unchanged: 0/0
  3334 ;; Data sizes:     COMMON   BANK0   BANK1   BANK2   BANK3   BANK4   BANK5   BANK6   BANK7   BANK8   BANK9  BANK10  BANK1
      +1  BANK12
  3335 ;;      Params:         4       0       0       0       0       0       0       0       0       0       0       0       
      +0       0
  3336 ;;      Locals:         0       0       0       0       0       0       0       0       0       0       0       0       
      +0       0
  3337 ;;      Temps:          0       0       0       0       0       0       0       0       0       0       0       0       
      +0       0
  3338 ;;      Totals:         4       0       0       0       0       0       0       0       0       0       0       0       
      +0       0
  3339 ;;Total ram usage:        4 bytes
  3340 ;; Hardware stack levels used: 1
  3341 ;; Hardware stack levels required when called: 4
  3342 ;; This function calls:
  3343 ;;		Nothing
  3344 ;; This function is called by:
  3345 ;;		_main
  3346 ;; This function uses a non-reentrant model
  3347 ;;
  3348                           
  3349  0197                     _FR_Timer_GetMillis:	
  3350                           ;psect for function _FR_Timer_GetMillis
  3351                           
  3352  0197                     l1145:	
  3353                           ;incstack = 0
  3354                           ; Regs used in _FR_Timer_GetMillis: [wreg]
  3355                           
  3356                           
  3357                           ;FR_Timer.c: 43:     return millis;
  3358  0197  0020               	movlb	0	; select bank0
  3359  0198  0827               	movf	_millis+3,w
  3360  0199  00F3               	movwf	?_FR_Timer_GetMillis+3
  3361  019A  0826               	movf	_millis+2,w
  3362  019B  00F2               	movwf	?_FR_Timer_GetMillis+2
  3363  019C  0825               	movf	_millis+1,w
  3364  019D  00F1               	movwf	?_FR_Timer_GetMillis+1
  3365  019E  0824               	movf	_millis,w
  3366  019F  00F0               	movwf	?_FR_Timer_GetMillis
  3367  01A0                     l73:
  3368  01A0  0008               	return
  3369  01A1                     __end_of_FR_Timer_GetMillis:
  3370                           
  3371                           	psect	intentry
  3372  0004                     __pintentry:	
  3373 ;; *************** function _InterruptManager *****************
  3374 ;; Defined at:
  3375 ;;		line 70 in file "PIC16Xpress_DevBoard.c"
  3376 ;; Parameters:    Size  Location     Type
  3377 ;;		None
  3378 ;; Auto vars:     Size  Location     Type
  3379 ;;		None
  3380 ;; Return value:  Size  Location     Type
  3381 ;;                  1    wreg      void 
  3382 ;; Registers used:
  3383 ;;		wreg, status,2, status,0, pclath, cstack
  3384 ;; Tracked objects:
  3385 ;;		On entry : 0/0
  3386 ;;		On exit  : 0/0
  3387 ;;		Unchanged: 0/0
  3388 ;; Data sizes:     COMMON   BANK0   BANK1   BANK2   BANK3   BANK4   BANK5   BANK6   BANK7   BANK8   BANK9  BANK10  BANK1
      +1  BANK12
  3389 ;;      Params:         0       0       0       0       0       0       0       0       0       0       0       0       
      +0       0
  3390 ;;      Locals:         0       0       0       0       0       0       0       0       0       0       0       0       
      +0       0
  3391 ;;      Temps:          0       0       0       0       0       0       0       0       0       0       0       0       
      +0       0
  3392 ;;      Totals:         0       0       0       0       0       0       0       0       0       0       0       0       
      +0       0
  3393 ;;Total ram usage:        0 bytes
  3394 ;; Hardware stack levels used: 1
  3395 ;; Hardware stack levels required when called: 3
  3396 ;; This function calls:
  3397 ;;		_TMR0_ISR
  3398 ;; This function is called by:
  3399 ;;		Interrupt level 1
  3400 ;; This function uses a non-reentrant model
  3401 ;;
  3402                           
  3403  0004                     _InterruptManager:
  3404                           
  3405                           ;incstack = 0
  3406  0004  147E               	bsf	int$flags,0	;set compiler interrupt flag (level 1)
  3407                           
  3408                           ; Regs used in _InterruptManager: [wreg+status,2+status,0+pclath+cstack]
  3409  0005  3180               	pagesel	$
  3410  0006                     i1l1251:
  3411                           
  3412                           ;PIC16Xpress_DevBoard.c: 72:     if(PIR0bits.TMR0IF) {
  3413  0006  0020               	movlb	0	; select bank0
  3414  0007  1E90               	btfss	16,5	;volatile
  3415  0008  280A               	goto	u10_21
  3416  0009  280B               	goto	u10_20
  3417  000A                     u10_21:
  3418  000A  280E               	goto	i1l173
  3419  000B                     u10_20:
  3420  000B                     i1l1253:
  3421                           
  3422                           ;PIC16Xpress_DevBoard.c: 73:         TMR0_ISR();
  3423  000B  3181  213A  3180   	fcall	_TMR0_ISR
  3424  000E                     i1l173:
  3425  000E  107E               	bcf	int$flags,0	;clear compiler interrupt flag (level 1)
  3426  000F  0009               	retfie
  3427  0010                     __end_of_InterruptManager:
  3428                           
  3429                           	psect	text11
  3430  013A                     __ptext11:	
  3431 ;; *************** function _TMR0_ISR *****************
  3432 ;; Defined at:
  3433 ;;		line 89 in file "tmr0.c"
  3434 ;; Parameters:    Size  Location     Type
  3435 ;;		None
  3436 ;; Auto vars:     Size  Location     Type
  3437 ;;		None
  3438 ;; Return value:  Size  Location     Type
  3439 ;;                  1    wreg      void 
  3440 ;; Registers used:
  3441 ;;		wreg, status,2, status,0, pclath, cstack
  3442 ;; Tracked objects:
  3443 ;;		On entry : 0/0
  3444 ;;		On exit  : 0/0
  3445 ;;		Unchanged: 0/0
  3446 ;; Data sizes:     COMMON   BANK0   BANK1   BANK2   BANK3   BANK4   BANK5   BANK6   BANK7   BANK8   BANK9  BANK10  BANK1
      +1  BANK12
  3447 ;;      Params:         0       0       0       0       0       0       0       0       0       0       0       0       
      +0       0
  3448 ;;      Locals:         0       0       0       0       0       0       0       0       0       0       0       0       
      +0       0
  3449 ;;      Temps:          0       0       0       0       0       0       0       0       0       0       0       0       
      +0       0
  3450 ;;      Totals:         0       0       0       0       0       0       0       0       0       0       0       0       
      +0       0
  3451 ;;Total ram usage:        0 bytes
  3452 ;; Hardware stack levels used: 1
  3453 ;; Hardware stack levels required when called: 2
  3454 ;; This function calls:
  3455 ;;		_TMR0_CallBack
  3456 ;; This function is called by:
  3457 ;;		_InterruptManager
  3458 ;; This function uses a non-reentrant model
  3459 ;;
  3460                           
  3461  013A                     _TMR0_ISR:	
  3462                           ;psect for function _TMR0_ISR
  3463                           
  3464  013A                     i1l1215:	
  3465                           ;incstack = 0
  3466                           ; Regs used in _TMR0_ISR: [wreg+status,2+status,0+pclath+cstack]
  3467                           
  3468                           
  3469                           ;tmr0.c: 91:     static volatile uint16_t CountCallBack = 0;;tmr0.c: 94:     PIR0bits.TM
      +                          R0IF = 0;
  3470  013A  0020               	movlb	0	; select bank0
  3471  013B  1290               	bcf	16,5	;volatile
  3472  013C                     i1l1217:
  3473                           
  3474                           ;tmr0.c: 96:     if (++CountCallBack >= 4)
  3475  013C  3001               	movlw	1
  3476  013D  07F8               	addwf	TMR0_ISR@CountCallBack,f	;volatile
  3477  013E  3000               	movlw	0
  3478  013F  3DF9               	addwfc	TMR0_ISR@CountCallBack+1,f	;volatile
  3479  0140  3000               	movlw	0
  3480  0141  0279               	subwf	TMR0_ISR@CountCallBack+1,w	;volatile
  3481  0142  3004               	movlw	4
  3482  0143  1903               	skipnz
  3483  0144  0278               	subwf	TMR0_ISR@CountCallBack,w	;volatile
  3484  0145  1C03               	skipc
  3485  0146  2948               	goto	u8_21
  3486  0147  2949               	goto	u8_20
  3487  0148                     u8_21:
  3488  0148  294E               	goto	i1l270
  3489  0149                     u8_20:
  3490  0149                     i1l1219:
  3491                           
  3492                           ;tmr0.c: 97:     {;tmr0.c: 99:         TMR0_CallBack();
  3493  0149  3181  2163  3181   	fcall	_TMR0_CallBack
  3494  014C                     i1l1221:
  3495                           
  3496                           ;tmr0.c: 102:         CountCallBack = 0;
  3497  014C  01F8               	clrf	TMR0_ISR@CountCallBack	;volatile
  3498  014D  01F9               	clrf	TMR0_ISR@CountCallBack+1	;volatile
  3499  014E                     i1l270:
  3500  014E  0008               	return
  3501  014F                     __end_of_TMR0_ISR:
  3502                           
  3503                           	psect	text12
  3504  0163                     __ptext12:	
  3505 ;; *************** function _TMR0_CallBack *****************
  3506 ;; Defined at:
  3507 ;;		line 110 in file "tmr0.c"
  3508 ;; Parameters:    Size  Location     Type
  3509 ;;		None
  3510 ;; Auto vars:     Size  Location     Type
  3511 ;;		None
  3512 ;; Return value:  Size  Location     Type
  3513 ;;                  1    wreg      void 
  3514 ;; Registers used:
  3515 ;;		wreg, status,2, status,0, pclath, cstack
  3516 ;; Tracked objects:
  3517 ;;		On entry : 0/0
  3518 ;;		On exit  : 0/0
  3519 ;;		Unchanged: 0/0
  3520 ;; Data sizes:     COMMON   BANK0   BANK1   BANK2   BANK3   BANK4   BANK5   BANK6   BANK7   BANK8   BANK9  BANK10  BANK1
      +1  BANK12
  3521 ;;      Params:         0       0       0       0       0       0       0       0       0       0       0       0       
      +0       0
  3522 ;;      Locals:         0       0       0       0       0       0       0       0       0       0       0       0       
      +0       0
  3523 ;;      Temps:          0       0       0       0       0       0       0       0       0       0       0       0       
      +0       0
  3524 ;;      Totals:         0       0       0       0       0       0       0       0       0       0       0       0       
      +0       0
  3525 ;;Total ram usage:        0 bytes
  3526 ;; Hardware stack levels used: 1
  3527 ;; Hardware stack levels required when called: 1
  3528 ;; This function calls:
  3529 ;;		Absolute function
  3530 ;;		_FR_Timer_IncMicros
  3531 ;;		_FR_Timer_IncMillis
  3532 ;;		_TMR0_DefaultInterruptHandler
  3533 ;; This function is called by:
  3534 ;;		_TMR0_ISR
  3535 ;; This function uses a non-reentrant model
  3536 ;;
  3537                           
  3538  0163                     _TMR0_CallBack:	
  3539                           ;psect for function _TMR0_CallBack
  3540                           
  3541  0163                     i1l1135:	
  3542                           ;incstack = 0
  3543                           ; Regs used in _TMR0_CallBack: [wreg+status,2+status,0+pclath+cstack]
  3544                           
  3545                           
  3546                           ;tmr0.c: 112:     FR_Timer_IncMillis();
  3547  0163  3181  21A1  3181   	fcall	_FR_Timer_IncMillis
  3548                           
  3549                           ;tmr0.c: 113:     FR_Timer_IncMicros();
  3550  0166  3181  21AB  3181   	fcall	_FR_Timer_IncMicros
  3551  0169                     i1l1137:
  3552                           
  3553                           ;tmr0.c: 115:     if(TMR0_InterruptHandler)
  3554  0169  087A               	movf	_TMR0_InterruptHandler,w
  3555  016A  047B               	iorwf	_TMR0_InterruptHandler+1,w
  3556  016B  1903               	btfsc	3,2
  3557  016C  296E               	goto	u7_21
  3558  016D  296F               	goto	u7_20
  3559  016E                     u7_21:
  3560  016E  2974               	goto	i1l274
  3561  016F                     u7_20:
  3562  016F                     i1l1139:
  3563                           
  3564                           ;tmr0.c: 116:     {;tmr0.c: 117:         TMR0_InterruptHandler();
  3565  016F  087B               	movf	_TMR0_InterruptHandler+1,w
  3566  0170  008A               	movwf	10
  3567  0171  087A               	movf	_TMR0_InterruptHandler,w
  3568  0172  000A               	callw
  3569  0173  3181               	pagesel	$
  3570  0174                     i1l274:
  3571  0174  0008               	return
  3572  0175                     __end_of_TMR0_CallBack:
  3573                           
  3574                           	psect	text13
  3575  01C2                     __ptext13:	
  3576 ;; *************** function _TMR0_DefaultInterruptHandler *****************
  3577 ;; Defined at:
  3578 ;;		line 129 in file "tmr0.c"
  3579 ;; Parameters:    Size  Location     Type
  3580 ;;		None
  3581 ;; Auto vars:     Size  Location     Type
  3582 ;;		None
  3583 ;; Return value:  Size  Location     Type
  3584 ;;                  1    wreg      void 
  3585 ;; Registers used:
  3586 ;;		None
  3587 ;; Tracked objects:
  3588 ;;		On entry : 0/0
  3589 ;;		On exit  : 0/0
  3590 ;;		Unchanged: 0/0
  3591 ;; Data sizes:     COMMON   BANK0   BANK1   BANK2   BANK3   BANK4   BANK5   BANK6   BANK7   BANK8   BANK9  BANK10  BANK1
      +1  BANK12
  3592 ;;      Params:         0       0       0       0       0       0       0       0       0       0       0       0       
      +0       0
  3593 ;;      Locals:         0       0       0       0       0       0       0       0       0       0       0       0       
      +0       0
  3594 ;;      Temps:          0       0       0       0       0       0       0       0       0       0       0       0       
      +0       0
  3595 ;;      Totals:         0       0       0       0       0       0       0       0       0       0       0       0       
      +0       0
  3596 ;;Total ram usage:        0 bytes
  3597 ;; Hardware stack levels used: 1
  3598 ;; This function calls:
  3599 ;;		Nothing
  3600 ;; This function is called by:
  3601 ;;		_TMR0_Initialize
  3602 ;;		_TMR0_CallBack
  3603 ;; This function uses a non-reentrant model
  3604 ;;
  3605                           
  3606  01C2                     _TMR0_DefaultInterruptHandler:	
  3607                           ;psect for function _TMR0_DefaultInterruptHandler
  3608                           
  3609  01C2                     i1l280:	
  3610                           ;incstack = 0
  3611                           ; Regs used in _TMR0_DefaultInterruptHandler: []
  3612                           
  3613  01C2  0008               	return
  3614  01C3                     __end_of_TMR0_DefaultInterruptHandler:
  3615                           
  3616                           	psect	text14
  3617  01A1                     __ptext14:	
  3618 ;; *************** function _FR_Timer_IncMillis *****************
  3619 ;; Defined at:
  3620 ;;		line 54 in file "FR_Timer.c"
  3621 ;; Parameters:    Size  Location     Type
  3622 ;;		None
  3623 ;; Auto vars:     Size  Location     Type
  3624 ;;		None
  3625 ;; Return value:  Size  Location     Type
  3626 ;;                  1    wreg      void 
  3627 ;; Registers used:
  3628 ;;		wreg
  3629 ;; Tracked objects:
  3630 ;;		On entry : 0/0
  3631 ;;		On exit  : 0/0
  3632 ;;		Unchanged: 0/0
  3633 ;; Data sizes:     COMMON   BANK0   BANK1   BANK2   BANK3   BANK4   BANK5   BANK6   BANK7   BANK8   BANK9  BANK10  BANK1
      +1  BANK12
  3634 ;;      Params:         0       0       0       0       0       0       0       0       0       0       0       0       
      +0       0
  3635 ;;      Locals:         0       0       0       0       0       0       0       0       0       0       0       0       
      +0       0
  3636 ;;      Temps:          0       0       0       0       0       0       0       0       0       0       0       0       
      +0       0
  3637 ;;      Totals:         0       0       0       0       0       0       0       0       0       0       0       0       
      +0       0
  3638 ;;Total ram usage:        0 bytes
  3639 ;; Hardware stack levels used: 1
  3640 ;; This function calls:
  3641 ;;		Nothing
  3642 ;; This function is called by:
  3643 ;;		_TMR0_CallBack
  3644 ;; This function uses a non-reentrant model
  3645 ;;
  3646                           
  3647  01A1                     _FR_Timer_IncMillis:	
  3648                           ;psect for function _FR_Timer_IncMillis
  3649                           
  3650  01A1                     i1l1097:	
  3651                           ;incstack = 0
  3652                           ; Regs used in _FR_Timer_IncMillis: [wreg]
  3653                           
  3654                           
  3655                           ;FR_Timer.c: 55:     millis += 1;
  3656  01A1  3001               	movlw	1
  3657  01A2  0020               	movlb	0	; select bank0
  3658  01A3  07A4               	addwf	_millis,f
  3659  01A4  3000               	movlw	0
  3660  01A5  3DA5               	addwfc	_millis+1,f
  3661  01A6  3000               	movlw	0
  3662  01A7  3DA6               	addwfc	_millis+2,f
  3663  01A8  3000               	movlw	0
  3664  01A9  3DA7               	addwfc	_millis+3,f
  3665  01AA                     i1l79:
  3666  01AA  0008               	return
  3667  01AB                     __end_of_FR_Timer_IncMillis:
  3668                           
  3669                           	psect	text15
  3670  01AB                     __ptext15:	
  3671 ;; *************** function _FR_Timer_IncMicros *****************
  3672 ;; Defined at:
  3673 ;;		line 60 in file "FR_Timer.c"
  3674 ;; Parameters:    Size  Location     Type
  3675 ;;		None
  3676 ;; Auto vars:     Size  Location     Type
  3677 ;;		None
  3678 ;; Return value:  Size  Location     Type
  3679 ;;                  1    wreg      void 
  3680 ;; Registers used:
  3681 ;;		wreg
  3682 ;; Tracked objects:
  3683 ;;		On entry : 0/0
  3684 ;;		On exit  : 0/0
  3685 ;;		Unchanged: 0/0
  3686 ;; Data sizes:     COMMON   BANK0   BANK1   BANK2   BANK3   BANK4   BANK5   BANK6   BANK7   BANK8   BANK9  BANK10  BANK1
      +1  BANK12
  3687 ;;      Params:         0       0       0       0       0       0       0       0       0       0       0       0       
      +0       0
  3688 ;;      Locals:         0       0       0       0       0       0       0       0       0       0       0       0       
      +0       0
  3689 ;;      Temps:          0       0       0       0       0       0       0       0       0       0       0       0       
      +0       0
  3690 ;;      Totals:         0       0       0       0       0       0       0       0       0       0       0       0       
      +0       0
  3691 ;;Total ram usage:        0 bytes
  3692 ;; Hardware stack levels used: 1
  3693 ;; This function calls:
  3694 ;;		Nothing
  3695 ;; This function is called by:
  3696 ;;		_TMR0_CallBack
  3697 ;; This function uses a non-reentrant model
  3698 ;;
  3699                           
  3700  01AB                     _FR_Timer_IncMicros:	
  3701                           ;psect for function _FR_Timer_IncMicros
  3702                           
  3703  01AB                     i1l1099:	
  3704                           ;incstack = 0
  3705                           ; Regs used in _FR_Timer_IncMicros: [wreg]
  3706                           
  3707                           
  3708                           ;FR_Timer.c: 61:     micros += 1000;
  3709  01AB  30E8               	movlw	232
  3710  01AC  0020               	movlb	0	; select bank0
  3711  01AD  07A0               	addwf	_micros,f
  3712  01AE  3003               	movlw	3
  3713  01AF  3DA1               	addwfc	_micros+1,f
  3714  01B0  3000               	movlw	0
  3715  01B1  3DA2               	addwfc	_micros+2,f
  3716  01B2  3000               	movlw	0
  3717  01B3  3DA3               	addwfc	_micros+3,f
  3718  01B4                     i1l82:
  3719  01B4  0008               	return
  3720  01B5                     __end_of_FR_Timer_IncMicros:
  3721  007E                     btemp	set	126	;btemp
  3722  007E                     int$flags	set	126
  3723  007E                     wtemp0	set	126
  3724                           
  3725                           	psect	idloc
  3726                           
  3727                           ;Config register IDLOC0 @ 0x8000
  3728                           ;	unspecified, using default values
  3729  8000                     	org	32768
  3730  8000  3FFF               	dw	16383
  3731                           
  3732                           ;Config register IDLOC1 @ 0x8001
  3733                           ;	unspecified, using default values
  3734  8001                     	org	32769
  3735  8001  3FFF               	dw	16383
  3736                           
  3737                           ;Config register IDLOC2 @ 0x8002
  3738                           ;	unspecified, using default values
  3739  8002                     	org	32770
  3740  8002  3FFF               	dw	16383
  3741                           
  3742                           ;Config register IDLOC3 @ 0x8003
  3743                           ;	unspecified, using default values
  3744  8003                     	org	32771
  3745  8003  3FFF               	dw	16383
  3746                           
  3747                           	psect	config
  3748                           
  3749                           ;Config register CONFIG1 @ 0x8007
  3750                           ;	FEXTOSC External Oscillator mode Selection bits
  3751                           ;	FEXTOSC = OFF, Oscillator not enabled
  3752                           ;	Power-up default value for COSC bits
  3753                           ;	RSTOSC = HFINT32, HFINTOSC with 2x PLL (32MHz)
  3754                           ;	Clock Out Enable bit
  3755                           ;	CLKOUTEN = OFF, CLKOUT function is disabled; I/O or oscillator function on OSC2
  3756                           ;	Clock Switch Enable bit
  3757                           ;	CSWEN = ON, Writing to NOSC and NDIV is allowed
  3758                           ;	Fail-Safe Clock Monitor Enable
  3759                           ;	FCMEN = ON, Fail-Safe Clock Monitor is enabled
  3760  8007                     	org	32775
  3761  8007  3F8C               	dw	16268
  3762                           
  3763                           ;Config register CONFIG2 @ 0x8008
  3764                           ;	Master Clear Enable bit
  3765                           ;	MCLRE = ON, MCLR/VPP pin function is MCLR; Weak pull-up enabled
  3766                           ;	Power-up Timer Enable bit
  3767                           ;	PWRTE = OFF, PWRT disabled
  3768                           ;	Watchdog Timer Enable bits
  3769                           ;	WDTE = OFF, WDT disabled; SWDTEN is ignored
  3770                           ;	Low-power BOR enable bit
  3771                           ;	LPBOREN = OFF, ULPBOR disabled
  3772                           ;	Brown-out Reset Enable bits
  3773                           ;	BOREN = ON, Brown-out Reset enabled, SBOREN bit ignored
  3774                           ;	Brown-out Reset Voltage selection bit
  3775                           ;	BORV = LOW, Brown-out voltage (Vbor) set to 2.45V
  3776                           ;	PPSLOCK bit One-Way Set Enable bit
  3777                           ;	PPS1WAY = ON, The PPSLOCK bit can be cleared and set only once; PPS registers remain l
      +                          ocked after one clear/set cycle
  3778                           ;	Stack Overflow/Underflow Reset Enable bit
  3779                           ;	STVREN = ON, Stack Overflow or Underflow will cause a Reset
  3780                           ;	Debugger enable bit
  3781                           ;	DEBUG = OFF, Background debugger disabled
  3782  8008                     	org	32776
  3783  8008  3FF3               	dw	16371
  3784                           
  3785                           ;Config register CONFIG3 @ 0x8009
  3786                           ;	User NVM self-write protection bits
  3787                           ;	WRT = OFF, Write protection off
  3788                           ;	Low Voltage Programming Enable bit
  3789                           ;	LVP = ON, Low Voltage programming enabled. MCLR/VPP pin function is MCLR. MCLRE config
      +                          uration bit is ignored.
  3790  8009                     	org	32777
  3791  8009  3FFF               	dw	16383
  3792                           
  3793                           ;Config register CONFIG4 @ 0x800A
  3794                           ;	User NVM Program Memory Code Protection bit
  3795                           ;	CP = OFF, User NVM code protection disabled
  3796                           ;	Data NVM Memory Code Protection bit
  3797                           ;	CPD = OFF, Data NVM code protection disabled
  3798  800A                     	org	32778
  3799  800A  3FFF               	dw	16383

Data Sizes:
    Strings     142
    Constant    0
    Data        0
    BSS         12
    Persistent  32
    Stack       0

Auto Spaces:
    Space          Size  Autos    Used
    COMMON           14      8      12
    BANK0            80      8      16
    BANK1            80      0       0
    BANK2            80      0       0
    BANK3            80      0       0
    BANK4            80      0       0
    BANK5            80      0       0
    BANK6            80      0       0
    BANK7            80      0       0
    BANK8            80      0       0
    BANK9            80      0       0
    BANK10           80      0       0
    BANK11           80      0       0
    BANK12           48      0       0

Pointer List with Targets:

    vfprintf$2	PTR PTR void  size(1) Largest target is 1
		 -> printf@ap(COMMON[1]), 

    vfprintf$1	PTR const unsigned char  size(2) Largest target is 75
		 -> STR_2(CODE[75]), STR_1(CODE[67]), 

    vfprintf$0	PTR struct _IO_FILE size(1) Largest target is 0
		 -> NULL(NULL[0]), 

    TMR0_SetInterruptHandler@InterruptHandler	PTR FTN()void  size(2) Largest target is 1
		 -> TMR0_DefaultInterruptHandler(), 

    TMR0_InterruptHandler	PTR FTN()void  size(2) Largest target is 1
		 -> Absolute function(), TMR0_DefaultInterruptHandler(), 


Critical Paths under _main in COMMON

    _main->_FR_Timer_GetMillis
    _TMR0_Initialize->_TMR0_SetInterruptHandler

Critical Paths under _InterruptManager in COMMON

    None.

Critical Paths under _main in BANK0

    None.

Critical Paths under _InterruptManager in BANK0

    None.

Critical Paths under _main in BANK1

    None.

Critical Paths under _InterruptManager in BANK1

    None.

Critical Paths under _main in BANK2

    None.

Critical Paths under _InterruptManager in BANK2

    None.

Critical Paths under _main in BANK3

    None.

Critical Paths under _InterruptManager in BANK3

    None.

Critical Paths under _main in BANK4

    None.

Critical Paths under _InterruptManager in BANK4

    None.

Critical Paths under _main in BANK5

    None.

Critical Paths under _InterruptManager in BANK5

    None.

Critical Paths under _main in BANK6

    None.

Critical Paths under _InterruptManager in BANK6

    None.

Critical Paths under _main in BANK7

    None.

Critical Paths under _InterruptManager in BANK7

    None.

Critical Paths under _main in BANK8

    None.

Critical Paths under _InterruptManager in BANK8

    None.

Critical Paths under _main in BANK9

    None.

Critical Paths under _InterruptManager in BANK9

    None.

Critical Paths under _main in BANK10

    None.

Critical Paths under _InterruptManager in BANK10

    None.

Critical Paths under _main in BANK11

    None.

Critical Paths under _InterruptManager in BANK11

    None.

Critical Paths under _main in BANK12

    None.

Critical Paths under _InterruptManager in BANK12

    None.

Call Graph Tables:

 ---------------------------------------------------------------------------------
 (Depth) Function   	        Calls       Base Space   Used Autos Params    Refs
 ---------------------------------------------------------------------------------
 (0) _main                                                12    12      0     168
                                              4 COMMON     4     4      0
                                              0 BANK0      8     8      0
                 _FR_Timer_GetMillis
                      _FR_Timer_Init
                         _PIC16_Init
 ---------------------------------------------------------------------------------
 (1) _PIC16_Init                                           0     0      0       0
                  _SYSTEM_Initialize
 ---------------------------------------------------------------------------------
 (2) _SYSTEM_Initialize                                    0     0      0       0
              _OSCILLATOR_Initialize
                     _PMD_Initialize
                     _WDT_Initialize
 ---------------------------------------------------------------------------------
 (3) _WDT_Initialize                                       0     0      0       0
 ---------------------------------------------------------------------------------
 (3) _PMD_Initialize                                       0     0      0       0
 ---------------------------------------------------------------------------------
 (3) _OSCILLATOR_Initialize                                0     0      0       0
 ---------------------------------------------------------------------------------
 (1) _FR_Timer_Init                                        0     0      0      98
                    _TMR0_Initialize
 ---------------------------------------------------------------------------------
 (2) _TMR0_Initialize                                      0     0      0      98
           _TMR0_SetInterruptHandler
 ---------------------------------------------------------------------------------
 (3) _TMR0_SetInterruptHandler                             2     0      2      98
                                              0 COMMON     2     0      2
 ---------------------------------------------------------------------------------
 (1) _FR_Timer_GetMillis                                   4     0      4       0
                                              0 COMMON     4     0      4
 ---------------------------------------------------------------------------------
 Estimated maximum stack depth 3
 ---------------------------------------------------------------------------------
 (Depth) Function   	        Calls       Base Space   Used Autos Params    Refs
 ---------------------------------------------------------------------------------
 (4) _InterruptManager                                     0     0      0       0
                           _TMR0_ISR
 ---------------------------------------------------------------------------------
 (5) _TMR0_ISR                                             0     0      0       0
                      _TMR0_CallBack
 ---------------------------------------------------------------------------------
 (6) _TMR0_CallBack                                        0     0      0       0
                   Absolute function *
                 _FR_Timer_IncMicros
                 _FR_Timer_IncMillis
       _TMR0_DefaultInterruptHandler *
 ---------------------------------------------------------------------------------
 (7) _TMR0_DefaultInterruptHandler                         0     0      0       0
 ---------------------------------------------------------------------------------
 (7) _FR_Timer_IncMillis                                   0     0      0       0
 ---------------------------------------------------------------------------------
 (7) _FR_Timer_IncMicros                                   0     0      0       0
 ---------------------------------------------------------------------------------
 (7) Absolute function(Fake)                               0     0      0       0
 ---------------------------------------------------------------------------------
 Estimated maximum stack depth 7
 ---------------------------------------------------------------------------------

 Call Graph Graphs:

 _main (ROOT)
   _FR_Timer_GetMillis
   _FR_Timer_Init
     _TMR0_Initialize
       _TMR0_SetInterruptHandler
   _PIC16_Init
     _SYSTEM_Initialize
       _OSCILLATOR_Initialize
       _PMD_Initialize
       _WDT_Initialize

 _InterruptManager (ROOT)
   _TMR0_ISR
     _TMR0_CallBack
       Absolute function(Fake) *
       _FR_Timer_IncMicros *
       _FR_Timer_IncMillis *
       _TMR0_DefaultInterruptHandler *

 Address spaces:
Name               Size   Autos  Total    Cost      Usage
BIGRAM             3F0      0       0       0        0.0%
EEDATA             100      0       0       0        0.0%
NULL                 0      0       0       0        0.0%
CODE                 0      0       0       0        0.0%
BITCOMMON            E      0       0       1        0.0%
BITSFR0              0      0       0       1        0.0%
SFR0                 0      0       0       1        0.0%
COMMON               E      8       C       2       85.7%
BITSFR1              0      0       0       2        0.0%
SFR1                 0      0       0       2        0.0%
BITSFR2              0      0       0       3        0.0%
SFR2                 0      0       0       3        0.0%
STACK                0      0       0       3        0.0%
BITBANK0            50      0       0       4        0.0%
BITSFR3              0      0       0       4        0.0%
SFR3                 0      0       0       4        0.0%
BANK0               50      8      10       5       20.0%
BITSFR4              0      0       0       5        0.0%
SFR4                 0      0       0       5        0.0%
BITBANK1            50      0       0       6        0.0%
BITSFR5              0      0       0       6        0.0%
SFR5                 0      0       0       6        0.0%
BANK1               50      0       0       7        0.0%
BITSFR6              0      0       0       7        0.0%
SFR6                 0      0       0       7        0.0%
BITBANK2            50      0       0       8        0.0%
BITSFR7              0      0       0       8        0.0%
SFR7                 0      0       0       8        0.0%
BANK2               50      0       0       9        0.0%
BITSFR8              0      0       0       9        0.0%
SFR8                 0      0       0       9        0.0%
BITBANK3            50      0       0      10        0.0%
BITSFR9              0      0       0      10        0.0%
SFR9                 0      0       0      10        0.0%
BANK3               50      0       0      11        0.0%
BITSFR10             0      0       0      11        0.0%
SFR10                0      0       0      11        0.0%
BITBANK4            50      0       0      12        0.0%
BITSFR11             0      0       0      12        0.0%
SFR11                0      0       0      12        0.0%
BANK4               50      0       0      13        0.0%
BITSFR12             0      0       0      13        0.0%
SFR12                0      0       0      13        0.0%
BITBANK5            50      0       0      14        0.0%
BITSFR13             0      0       0      14        0.0%
SFR13                0      0       0      14        0.0%
BANK5               50      0       0      15        0.0%
BITSFR14             0      0       0      15        0.0%
SFR14                0      0       0      15        0.0%
BITBANK6            50      0       0      16        0.0%
BITSFR15             0      0       0      16        0.0%
SFR15                0      0       0      16        0.0%
BANK6               50      0       0      17        0.0%
BITSFR16             0      0       0      17        0.0%
SFR16                0      0       0      17        0.0%
BITBANK7            50      0       0      18        0.0%
BITSFR17             0      0       0      18        0.0%
SFR17                0      0       0      18        0.0%
BANK7               50      0       0      19        0.0%
BITSFR18             0      0       0      19        0.0%
SFR18                0      0       0      19        0.0%
BITSFR19             0      0       0      20        0.0%
SFR19                0      0       0      20        0.0%
ABS                  0      0      1C      20        0.0%
BITBANK8            50      0       0      21        0.0%
BITSFR20             0      0       0      21        0.0%
SFR20                0      0       0      21        0.0%
BANK8               50      0       0      22        0.0%
BITSFR21             0      0       0      22        0.0%
SFR21                0      0       0      22        0.0%
BITBANK9            50      0       0      23        0.0%
BITSFR22             0      0       0      23        0.0%
SFR22                0      0       0      23        0.0%
BANK9               50      0       0      24        0.0%
BITSFR23             0      0       0      24        0.0%
SFR23                0      0       0      24        0.0%
BITBANK10           50      0       0      25        0.0%
BITSFR24             0      0       0      25        0.0%
SFR24                0      0       0      25        0.0%
BANK10              50      0       0      26        0.0%
BITSFR25             0      0       0      26        0.0%
SFR25                0      0       0      26        0.0%
BITBANK11           50      0       0      27        0.0%
BITSFR26             0      0       0      27        0.0%
SFR26                0      0       0      27        0.0%
BANK11              50      0       0      28        0.0%
BITSFR27             0      0       0      28        0.0%
SFR27                0      0       0      28        0.0%
BITBANK12           30      0       0      29        0.0%
BITSFR28             0      0       0      29        0.0%
SFR28                0      0       0      29        0.0%
BANK12              30      0       0      30        0.0%
BITSFR29             0      0       0      30        0.0%
SFR29                0      0       0      30        0.0%
BITSFR30             0      0       0      31        0.0%
SFR30                0      0       0      31        0.0%
DATA                 0      0      1C      31        0.0%
BITSFR31             0      0       0      32        0.0%
SFR31                0      0       0      32        0.0%


Microchip Technology PIC Macro Assembler V2.35 build 20211206165544 
Symbol Table                                                                                   Wed Jan 26 23:50:22 2022

                      ??_InterruptManager 0070                                        l70 01C1  
                                      l73 01A0                                        u60 018C  
                                      u61 018B                                        u90 005C  
                                      u91 005B                                       l211 0188  
                                     l220 0180                                       l214 018C  
                                     l208 0196                                       l217 01BD  
                                     l167 0139                                       l249 0162  
                                     l277 01B9                                      l1101 0175  
                                    l1111 0181                                      l1103 0177  
                                    l1121 014F                                      l1113 0185  
                                    l1105 0179                                      l1201 0130  
                                    l1131 015F                                      l1123 0154  
                                    l1115 0187                                      l1107 017B  
                                    l1211 0137                                      l1203 0132  
                                    l1125 0155                                      l1141 01BE  
                                    l1109 017D                                      l1117 01BA  
                                    l1133 018D                                      l1213 0138  
                                    l1205 0134                                      l1119 01B5  
                                    l1127 0156                                      l1207 0135  
                                    l1151 0104                                      l1145 0197  
                                    l1129 0158                                      l1209 0136  
                                    l1161 010A                                      l1153 0106  
                                    l1241 0034                                      l1233 0023  
                                    l1171 0113                                      l1163 010C  
                                    l1155 0107                                      l1243 0036  
                                    l1235 002C                                      l1181 011E  
                                    l1173 0115                                      l1165 010D  
                                    l1157 0108                                      l1149 0101  
                                    l1245 0042                                      l1237 002F  
                                    l1191 0124                                      l1183 011F  
                                    l1175 0118                                      l1167 010E  
                                    l1159 0109                                      l1247 005C  
                                    l1239 0032                                      l1193 0127  
                                    l1185 0120                                      l1177 011A  
                                    l1169 0111                                      l1249 0067  
                                    l1195 0129                                      l1187 0122  
                                    l1179 011C                                      l1197 012B  
                                    l1189 0123                                      l1199 012E  
                                    STR_1 00BE                                      STR_2 0073  
                                    _LATA 010C                                      _LATB 010D  
                                    _LATC 010E                                      _PIE0 0090  
                                    _PIE1 0091                                      _PIE2 0092  
                                    _PIE3 0093                                      _PIE4 0094  
                                    _PMD0 0911                                      _PMD1 0912  
                                    _PMD2 0913                                      _PMD3 0914  
                                    _PMD4 0915                                      _PMD5 0916  
                                    _PIR0 0010                                      _PIR1 0011  
                                    i1l82 01B4                                      _PIR2 0012  
                                    _PIR3 0013                                      _PIR4 0014  
                                    i1l79 01AA                                      _PLLR 48E0  
                                    _WPUA 020C                                      _WPUB 020D  
                                    _WPUC 020E                                      u7_20 016F  
                                    u7_21 016E                                      u8_20 0149  
                                    u8_21 0148                                      _main 0023  
                                    btemp 007E                                      start 0010  
                 __end_of_TMR0_Initialize 0163            ??_TMR0_DefaultInterruptHandler 0070  
           __end_of_OSCILLATOR_Initialize 018D                                     ?_main 0070  
                                   i1l173 000E                                     i1l270 014E  
                                   i1l280 01C2                                     i1l274 0174  
                                   u10_20 000B                                     u10_21 000A  
                                   _OSCEN 091D                                     _TMR0H 0016  
                                   _TMR0L 0015                                     _TRISA 008C  
                                   _TRISB 008D                                     _TRISC 008E  
               ?_TMR0_SetInterruptHandler 0070                          __end_of_TMR0_ISR 014F  
                          _WDT_Initialize 01BA                                     pclath 000A  
                                   status 0003                                     wtemp0 007E  
                   __end_of_FR_Timer_Init 01C2                           __initialization 0012  
                            __end_of_main 0073                                    ??_main 0074  
                  __end_of_WDT_Initialize 01BE                                    _ANSELA 018C  
                                  _ANSELB 018D                                    _ANSELC 018E  
                                  _T0CON0 0017                                    _T0CON1 0018  
                                  i1l1221 014C                                    i1l1135 0163  
                                  i1l1215 013A                                    i1l1137 0169  
                                  i1l1217 013C                                    i1l1139 016F  
                                  i1l1219 0149                                    i1l1251 0006  
                                  i1l1253 000B                                    i1l1097 01A1  
                                  _ODCONA 028C                                    _ODCONB 028D  
                                  i1l1099 01AB                                    _ODCONC 028E  
                                  _INLVLA 038C                                    _INLVLB 038D  
                                  _INLVLC 038E                             main@currMilli 002C  
                                  _OSCFRQ 091F                                    _WDTCON 0097  
                        ?_TMR0_Initialize 0070                                    _micros 0020  
                                  _millis 0024                             main@prevMilli 0028  
                          _PMD_Initialize 0175                           ?_WDT_Initialize 0070  
                   __end_of_TMR0_CallBack 0175  TMR0_SetInterruptHandler@InterruptHandler 0070  
                       _SYSTEM_Initialize 018D                   __end_of__initialization 001F  
                      ?_SYSTEM_Initialize 0070                              ??_PIC16_Init 0070  
                          __pcstackCOMMON 0070                       ??_SYSTEM_Initialize 0070  
                               ?_TMR0_ISR 0070                    __end_of_PMD_Initialize 0181  
                   TMR0_ISR@CountCallBack 0078                        __end_of_PIC16_Init 013A  
               __end_of_SYSTEM_Initialize 0197                                __pbssBANK0 0020  
                              __pmaintext 0023          __end_of_TMR0_SetInterruptHandler 01BA  
                              ??_TMR0_ISR 0070                                __pintentry 0004  
                         ?_PMD_Initialize 0070                                   _OSCCON1 0919  
                                 _OSCCON3 091B                                   _OSCTUNE 091E  
                                 _SLRCONA 030C                                   _SLRCONB 030D  
                                 _SLRCONC 030E                                   __ptext1 0101  
                                 __ptext2 018D                                   __ptext3 01BA  
                                 __ptext4 0175                                   __ptext5 0181  
                                 __ptext6 01BE                                   __ptext7 014F  
                                 __ptext8 01B5                                   __ptext9 0197  
                   _OSCILLATOR_Initialize 0181                      end_of_initialization 001F  
                        ??_WDT_Initialize 0070                  _TMR0_SetInterruptHandler 01B5  
                        _InterruptManager 0004                                 _TRISAbits 008C  
                               _TRISBbits 008D                                 _TRISCbits 008E  
                  ?_OSCILLATOR_Initialize 0070                       start_initialization 0012  
              __end_of_FR_Timer_GetMillis 01A1                             _FR_Timer_Init 01BE  
              __end_of_FR_Timer_IncMicros 01B5                __end_of_FR_Timer_IncMillis 01AB  
                        ??_PMD_Initialize 0070                               __pbssCOMMON 0078  
                               ___latbits 0002                             __pcstackBANK0 0028  
                          ?_FR_Timer_Init 0070                     _TMR0_InterruptHandler 007A  
                           _TMR0_CallBack 0163                         ??_TMR0_Initialize 0072  
                                _LATAbits 010C                                  _LATBbits 010D  
                                _LATCbits 010E                  __end_of_InterruptManager 0010  
                                _PIE0bits 0090                ??_TMR0_SetInterruptHandler 0072  
                                _PIR0bits 0010                                  _TMR0_ISR 013A  
                          ?_TMR0_CallBack 0070                           ??_FR_Timer_Init 0072  
                 ??_OSCILLATOR_Initialize 0070                                _T0CON0bits 0017  
                                __ptext11 013A                                  __ptext12 0163  
                                __ptext13 01C2                                  __ptext14 01A1  
                                __ptext15 01AB      __end_of_TMR0_DefaultInterruptHandler 01C3  
            _TMR0_DefaultInterruptHandler 01C2                                _PIC16_Init 0101  
                                int$flags 007E                        _FR_Timer_GetMillis 0197  
                      _FR_Timer_IncMicros 01AB                        _FR_Timer_IncMillis 01A1  
                              _INTCONbits 000B                           ??_TMR0_CallBack 0070  
                     ?_FR_Timer_GetMillis 0070                       ?_FR_Timer_IncMicros 0070  
                     ?_FR_Timer_IncMillis 0070                                  intlevel1 0000  
                    ??_FR_Timer_GetMillis 0074             ?_TMR0_DefaultInterruptHandler 0070  
                    ??_FR_Timer_IncMicros 0070                      ??_FR_Timer_IncMillis 0070  
                           __pstringtext1 0073                             __pstringtext2 00BE  
                           __pstringtext3 0000                           _TMR0_Initialize 014F  
                       ?_InterruptManager 0070                               ?_PIC16_Init 0070  
